


ARM Macro Assembler    Page 1 


    1 00000000         ; gpio.s
    2 00000000         ; Desenvolvido para a placa EK-TM4C1294XL
    3 00000000         ; Prof. Guilherme Peron
    4 00000000         ; 24/08/2020
    5 00000000         
    6 00000000         ; ------------------------------------------------------
                       -------------------------
    7 00000000                 THUMB                        ; InstruÔøΩÔøΩes do
                                                             tipo Thumb-2
    8 00000000         ; ------------------------------------------------------
                       -------------------------
    9 00000000         ; DeclaraÔøΩÔøΩes EQU - Defines
   10 00000000         ; ========================
   11 00000000         ; DefiniÔøΩÔøΩes de Valores
   12 00000000 00000001 
                       BIT0    EQU              2_0001
   13 00000000 00000002 
                       BIT1    EQU              2_0010
   14 00000000         ; ========================
   15 00000000         ; DefiniÔøΩÔøΩes dos Registradores Gerais
   16 00000000 400FE608 
                       SYSCTL_RCGCGPIO_R
                               EQU              0x400FE608
   17 00000000 400FEA08 
                       SYSCTL_PRGPIO_R
                               EQU              0x400FEA08
   18 00000000         ; ========================
   19 00000000         ; DefiniÔøΩÔøΩes dos Ports
   20 00000000         
   21 00000000         ; PORT A
   22 00000000 40058520 
                       GPIO_PORTA_AHB_LOCK_R
                               EQU              0x40058520
   23 00000000 40058524 
                       GPIO_PORTA_AHB_CR_R
                               EQU              0x40058524
   24 00000000 40058528 
                       GPIO_PORTA_AHB_AMSEL_R
                               EQU              0x40058528
   25 00000000 4005852C 
                       GPIO_PORTA_AHB_PCTL_R
                               EQU              0x4005852C
   26 00000000 40058400 
                       GPIO_PORTA_AHB_DIR_R
                               EQU              0x40058400
   27 00000000 40058420 
                       GPIO_PORTA_AHB_AFSEL_R
                               EQU              0x40058420
   28 00000000 4005851C 
                       GPIO_PORTA_AHB_DEN_R
                               EQU              0x4005851C
   29 00000000 40058510 
                       GPIO_PORTA_AHB_PUR_R
                               EQU              0x40058510
   30 00000000 400583FC 
                       GPIO_PORTA_AHB_DATA_R
                               EQU              0x400583FC
   31 00000000 00000001 
                       GPIO_PORTA



ARM Macro Assembler    Page 2 


                               EQU              2_000000000000001
   32 00000000         
   33 00000000         ; PORT B
   34 00000000 40059520 
                       GPIO_PORTB_AHB_LOCK_R
                               EQU              0x40059520
   35 00000000 40059524 
                       GPIO_PORTB_AHB_CR_R
                               EQU              0x40059524
   36 00000000 40059528 
                       GPIO_PORTB_AHB_AMSEL_R
                               EQU              0x40059528
   37 00000000 4005952C 
                       GPIO_PORTB_AHB_PCTL_R
                               EQU              0x4005952C
   38 00000000 40059400 
                       GPIO_PORTB_AHB_DIR_R
                               EQU              0x40059400
   39 00000000 40059420 
                       GPIO_PORTB_AHB_AFSEL_R
                               EQU              0x40059420
   40 00000000 4005951C 
                       GPIO_PORTB_AHB_DEN_R
                               EQU              0x4005951C
   41 00000000 40059510 
                       GPIO_PORTB_AHB_PUR_R
                               EQU              0x40059510
   42 00000000 400593FC 
                       GPIO_PORTB_AHB_DATA_R
                               EQU              0x400593FC
   43 00000000 00000002 
                       GPIO_PORTB
                               EQU              2_000000000000010
   44 00000000         
   45 00000000         ; PORT J
   46 00000000 40060520 
                       GPIO_PORTJ_AHB_LOCK_R
                               EQU              0x40060520
   47 00000000 40060524 
                       GPIO_PORTJ_AHB_CR_R
                               EQU              0x40060524
   48 00000000 40060528 
                       GPIO_PORTJ_AHB_AMSEL_R
                               EQU              0x40060528
   49 00000000 4006052C 
                       GPIO_PORTJ_AHB_PCTL_R
                               EQU              0x4006052C
   50 00000000 40060400 
                       GPIO_PORTJ_AHB_DIR_R
                               EQU              0x40060400
   51 00000000 40060420 
                       GPIO_PORTJ_AHB_AFSEL_R
                               EQU              0x40060420
   52 00000000 4006051C 
                       GPIO_PORTJ_AHB_DEN_R
                               EQU              0x4006051C
   53 00000000 40060510 
                       GPIO_PORTJ_AHB_PUR_R
                               EQU              0x40060510



ARM Macro Assembler    Page 3 


   54 00000000 400603FC 
                       GPIO_PORTJ_AHB_DATA_R
                               EQU              0x400603FC
   55 00000000 40060000 
                       GPIO_PORTJ_AHB_DATA_BITS_R
                               EQU              0x40060000
   56 00000000 40060414 
                       GPIO_PORTJ_AHB_RIS_R
                               EQU              0x40060414
   57 00000000 4006041C 
                       GPIO_PORTJ_AHB_ICR_R
                               EQU              0x4006041C
   58 00000000 40060404 
                       GPIO_PORTJ_AHB_IS_R
                               EQU              0x40060404
   59 00000000 40060408 
                       GPIO_PORTJ_AHB_IBE_R
                               EQU              0x40060408
   60 00000000 4006040C 
                       GPIO_PORTJ_AHB_IEV_R
                               EQU              0x4006040C
   61 00000000 40060410 
                       GPIO_PORTJ_AHB_IM_R
                               EQU              0x40060410
   62 00000000 00000100 
                       GPIO_PORTJ
                               EQU              2_000000100000000
   63 00000000         
   64 00000000         ; PORT K
   65 00000000 40061520 
                       GPIO_PORTK_LOCK_R
                               EQU              0x40061520
   66 00000000 40061524 
                       GPIO_PORTK_CR_R
                               EQU              0x40061524
   67 00000000 40061528 
                       GPIO_PORTK_AMSEL_R
                               EQU              0x40061528
   68 00000000 4006152C 
                       GPIO_PORTK_PCTL_R
                               EQU              0x4006152C
   69 00000000 40061400 
                       GPIO_PORTK_DIR_R
                               EQU              0x40061400
   70 00000000 40061420 
                       GPIO_PORTK_AFSEL_R
                               EQU              0x40061420
   71 00000000 4006151C 
                       GPIO_PORTK_DEN_R
                               EQU              0x4006151C
   72 00000000 40061510 
                       GPIO_PORTK_PUR_R
                               EQU              0x40061510
   73 00000000 400613FC 
                       GPIO_PORTK_DATA_R
                               EQU              0x400613FC
   74 00000000 00000200 
                       GPIO_PORTK
                               EQU              2_000001000000000



ARM Macro Assembler    Page 4 


   75 00000000         
   76 00000000         ; PORT M
   77 00000000 40063520 
                       GPIO_PORTM_LOCK_R
                               EQU              0x40063520
   78 00000000 40063524 
                       GPIO_PORTM_CR_R
                               EQU              0x40063524
   79 00000000 40063528 
                       GPIO_PORTM_AMSEL_R
                               EQU              0x40063528
   80 00000000 4006352C 
                       GPIO_PORTM_PCTL_R
                               EQU              0x4006352C
   81 00000000 40063400 
                       GPIO_PORTM_DIR_R
                               EQU              0x40063400
   82 00000000 40063420 
                       GPIO_PORTM_AFSEL_R
                               EQU              0x40063420
   83 00000000 4006351C 
                       GPIO_PORTM_DEN_R
                               EQU              0x4006351C
   84 00000000 40063510 
                       GPIO_PORTM_PUR_R
                               EQU              0x40063510
   85 00000000 400633FC 
                       GPIO_PORTM_DATA_R
                               EQU              0x400633FC
   86 00000000 00000800 
                       GPIO_PORTM
                               EQU              2_000100000000000
   87 00000000         
   88 00000000         ; PORT Q
   89 00000000 40066520 
                       GPIO_PORTQ_LOCK_R
                               EQU              0x40066520
   90 00000000 40066524 
                       GPIO_PORTQ_CR_R
                               EQU              0x40066524
   91 00000000 40066528 
                       GPIO_PORTQ_AMSEL_R
                               EQU              0x40066528
   92 00000000 4006652C 
                       GPIO_PORTQ_PCTL_R
                               EQU              0x4006652C
   93 00000000 40066400 
                       GPIO_PORTQ_DIR_R
                               EQU              0x40066400
   94 00000000 40066420 
                       GPIO_PORTQ_AFSEL_R
                               EQU              0x40066420
   95 00000000 4006651C 
                       GPIO_PORTQ_DEN_R
                               EQU              0x4006651C
   96 00000000 40066510 
                       GPIO_PORTQ_PUR_R
                               EQU              0x40066510
   97 00000000 400663FC 



ARM Macro Assembler    Page 5 


                       GPIO_PORTQ_DATA_R
                               EQU              0x400663FC
   98 00000000 00004000 
                       GPIO_PORTQ
                               EQU              2_100000000000000
   99 00000000         
  100 00000000 E000E104 
                       NVIC_EN1_R
                               EQU              0xE000E104
  101 00000000 E000E430 
                       NVIC_PRI12_R
                               EQU              0xE000E430
  102 00000000         
  103 00000000         ; ------------------------------------------------------
                       -------------------------
  104 00000000         ; ÔøΩrea de CÔøΩdigo - Tudo abaixo da diretiva a seguir 
                       serÔøΩ armazenado na memÔøΩria de 
  105 00000000         ;                  cÔøΩdigo
  106 00000000                 AREA             |.text|, CODE, READONLY, ALIGN=
2
  107 00000000         ; Se alguma funÔøΩÔøΩo do arquivo for chamada em outro a
                       rquivo 
  108 00000000                 EXPORT           GPIO_Init   ; Permite chamar GP
                                                            IO_Init de outro ar
                                                            quivo
  109 00000000                 EXPORT           PortA_Output ; Permite chamar P
                                                            ortA_Output de outr
                                                            o arquivo
  110 00000000                 EXPORT           PortB_Output ; Permite chamar P
                                                            ortB_Output de outr
                                                            o arquivo
  111 00000000                 EXPORT           PortJ_Input ; Permite chamar Po
                                                            rtJ_Input de outro 
                                                            arquivo
  112 00000000                 EXPORT           PortK_Output ; Permite chamar P
                                                            ortK_Output de outr
                                                            o arquivo
  113 00000000                 EXPORT           PortM_Output ; Permite chamar P
                                                            ortM_Output de outr
                                                            o arquivo
  114 00000000                 EXPORT           PortQ_Output ; Permite chamar P
                                                            ortQ_Output de outr
                                                            o arquivo
  115 00000000                 IMPORT           SysTick_Wait1ms
  116 00000000         ;-------------------------------------------------------
                       -------------------------
  117 00000000         ; FunÔøΩÔøΩo GPIO_Init
  118 00000000         ; ParÔøΩmetro de entrada: NÔøΩo tem
  119 00000000         ; ParÔøΩmetro de saÔøΩda: NÔøΩo tem
  120 00000000         GPIO_Init
  121 00000000         ;=====================
  122 00000000         ; 1. Ativar o clock para a porta setando o bit correspon
                       dente no registrador RCGCGPIO,
  123 00000000         ; apÔøΩs isso verificar no PRGPIO se a porta estÔøΩ pron
                       ta para uso.
  124 00000000         ; enable clock to GPIOF at clock gating register
  125 00000000 4878            LDR              R0, =SYSCTL_RCGCGPIO_R ;Carrega
                                                             o endereÔøΩo do re
                                                            gistrador RCGCGPIO



ARM Macro Assembler    Page 6 


  126 00000002 F04F 0101       MOV              R1, #GPIO_PORTA ; Ativa o clock
                                                             para a porta A
  127 00000006 F041 0102       ORR              R1, #GPIO_PORTB ; Ativa o clock
                                                             para a porta B
  128 0000000A F441 7180       ORR              R1, #GPIO_PORTJ ; Ativa o clock
                                                             para a porta J
  129 0000000E F441 7100       ORR              R1, #GPIO_PORTK ; Ativa o clock
                                                             para a porta K
  130 00000012 F441 6100       ORR              R1, #GPIO_PORTM ; Ativa o clock
                                                             para a porta M
  131 00000016 F441 4180       ORR              R1, #GPIO_PORTQ ; Ativa o clock
                                                             para a porta Q
  132 0000001A 6001            STR              R1, [R0]    ;Move para a memÔøΩ
                                                            ria os bits das por
                                                            tas no endereÔøΩo d
                                                            o RCGCGPIO
  133 0000001C         
  134 0000001C 4872            LDR              R0, =SYSCTL_PRGPIO_R ;Carrega o
                                                             endereÔøΩo do PRGP
                                                            IO para esperar os 
                                                            GPIO ficarem pronto
                                                            s
  135 0000001E 6801    EsperaGPIO
                               LDR              R1, [R0]    ;LÔøΩ da memÔøΩria 
                                                            o conteÔøΩdo do end
                                                            ereÔøΩo do registra
                                                            dor
  136 00000020 F04F 0201       MOV              R2, #GPIO_PORTA ; Configura os 
                                                            bits para verificar
                                                             a porta A
  137 00000024 F042 0202       ORR              R2, #GPIO_PORTB ; Configura os 
                                                            bits para verificar
                                                             a porta B
  138 00000028 F442 7280       ORR              R2, #GPIO_PORTJ ; Configura os 
                                                            bits para verificar
                                                             a porta J
  139 0000002C F442 7200       ORR              R2, #GPIO_PORTK ; Configura os 
                                                            bits para verificar
                                                             a porta K
  140 00000030 F442 6200       ORR              R2, #GPIO_PORTM ; Configura os 
                                                            bits para verificar
                                                             a porta M
  141 00000034 F442 4280       ORR              R2, #GPIO_PORTQ ; Configura os 
                                                            bits para verificar
                                                             a porta Q
  142 00000038 4211            TST              R1, R2      ;Testa o R1 com R2 
                                                            fazendo R1 & R2
  143 0000003A D0F0            BEQ              EsperaGPIO  ;Se o flag Z=1, vol
                                                            ta para o laÔøΩo. S
                                                            enÔøΩo continua exe
                                                            cutando
  144 0000003C         
  145 0000003C         ; 2. Limpar o AMSEL para desabilitar a analÔøΩgica
  146 0000003C F04F 0100       MOV              R1, #0x00   ;Colocar 0 no regis
                                                            trador para desabil
                                                            itar a funÔøΩÔøΩo a
                                                            nalÔøΩgica
  147 00000040 486A            LDR              R0, =GPIO_PORTA_AHB_AMSEL_R ; E
                                                            ndere√ßo do AMSEL p



ARM Macro Assembler    Page 7 


                                                            ara a porta A
  148 00000042 6001            STR              R1, [R0]    ; Escreve no regist
                                                            rador AMSEL
  149 00000044 486A            LDR              R0, =GPIO_PORTB_AHB_AMSEL_R ; E
                                                            ndere√ßo do AMSEL p
                                                            ara a porta B
  150 00000046 6001            STR              R1, [R0]    ; Escreve no regist
                                                            rador AMSEL
  151 00000048 486A            LDR              R0, =GPIO_PORTJ_AHB_AMSEL_R ; E
                                                            ndere√ßo do AMSEL p
                                                            ara a porta J
  152 0000004A 6001            STR              R1, [R0]    ; Escreve no regist
                                                            rador AMSEL
  153 0000004C 486A            LDR              R0, =GPIO_PORTK_AMSEL_R ; Ender
                                                            e√ßo do AMSEL para 
                                                            a porta K
  154 0000004E 6001            STR              R1, [R0]    ; Escreve no regist
                                                            rador AMSEL
  155 00000050 486A            LDR              R0, =GPIO_PORTM_AMSEL_R ; Ender
                                                            e√ßo do AMSEL para 
                                                            a porta M
  156 00000052 6001            STR              R1, [R0]    ; Escreve no regist
                                                            rador AMSEL
  157 00000054 486A            LDR              R0, =GPIO_PORTQ_AMSEL_R ; Ender
                                                            e√ßo do AMSEL para 
                                                            a porta Q
  158 00000056 6001            STR              R1, [R0]    ; Escreve no regist
                                                            rador AMSEL    
  159 00000058         
  160 00000058         ; 3. Limpar PCTL para selecionar o GPIO
  161 00000058 F04F 0100       MOV              R1, #0x00   ; Configura 0 para 
                                                            selecionar GPIO
  162 0000005C 4869            LDR              R0, =GPIO_PORTA_AHB_PCTL_R ; En
                                                            dere√ßo do PCTL par
                                                            a a porta A
  163 0000005E 6001            STR              R1, [R0]    ; Escreve no regist
                                                            rador PCTL
  164 00000060 4869            LDR              R0, =GPIO_PORTB_AHB_PCTL_R ; En
                                                            dere√ßo do PCTL par
                                                            a a porta B
  165 00000062 6001            STR              R1, [R0]    ; Escreve no regist
                                                            rador PCTL
  166 00000064 4869            LDR              R0, =GPIO_PORTJ_AHB_PCTL_R ; En
                                                            dere√ßo do PCTL par
                                                            a a porta J
  167 00000066 6001            STR              R1, [R0]    ; Escreve no regist
                                                            rador PCTL
  168 00000068 4869            LDR              R0, =GPIO_PORTK_PCTL_R ; Endere
                                                            √ßo do PCTL para a 
                                                            porta K
  169 0000006A 6001            STR              R1, [R0]    ; Escreve no regist
                                                            rador PCTL
  170 0000006C 4869            LDR              R0, =GPIO_PORTM_PCTL_R ; Endere
                                                            √ßo do PCTL para a 
                                                            porta M
  171 0000006E 6001            STR              R1, [R0]    ; Escreve no regist
                                                            rador PCTL
  172 00000070 4869            LDR              R0, =GPIO_PORTQ_PCTL_R ; Endere
                                                            √ßo do PCTL para a 



ARM Macro Assembler    Page 8 


                                                            porta Q
  173 00000072 6001            STR              R1, [R0]    ; Escreve no regist
                                                            rador PCTL
  174 00000074         
  175 00000074         ; 4. DIR para 0 se for entrada, 1 se for saÔøΩda
  176 00000074         ; Configura PA7:PA4 como sa√≠da (displays de 7 segmentos
                       )
  177 00000074 4869            LDR              R0, =GPIO_PORTA_AHB_DIR_R ; End
                                                            ere√ßo do DIR para 
                                                            a porta A
  178 00000076 F04F 01F0       MOV              R1, #0xF0   ; PA7:PA4 como sa√≠
                                                            da
  179 0000007A 6001            STR              R1, [R0]    ; Escreve no regist
                                                            rador DIR
  180 0000007C         
  181 0000007C         ; Configura PB5 e PB4 como sa√≠da (transistores)
  182 0000007C 4868            LDR              R0, =GPIO_PORTB_AHB_DIR_R ; End
                                                            ere√ßo do DIR para 
                                                            a porta B
  183 0000007E F04F 0130       MOV              R1, #0x30   ; PB5 e PB4 como sa
                                                            √≠da
  184 00000082 6001            STR              R1, [R0]    ; Escreve no regist
                                                            rador DIR
  185 00000084         
  186 00000084         ; Configura PJ0 e PJ1 como entrada (bot√µes USR_SW1 e US
                       R_SW2)
  187 00000084 4867            LDR              R0, =GPIO_PORTJ_AHB_DIR_R ; End
                                                            ere√ßo do DIR para 
                                                            a porta J
  188 00000086 F04F 0100       MOV              R1, #0x00   ; PJ0 e PJ1 como en
                                                            trada
  189 0000008A 6001            STR              R1, [R0]    ; Escreve no regist
                                                            rador DIR
  190 0000008C         
  191 0000008C         ; Configura PK7:PK0 como sa√≠da (LCD)
  192 0000008C 4866            LDR              R0, =GPIO_PORTK_DIR_R ; Endere√
                                                            ßo do DIR para a po
                                                            rta K
  193 0000008E F04F 01FF       MOV              R1, #0xFF   ; Configura PK7‚ÄìP
                                                            K0 como sa√≠da
  194 00000092 6001            STR              R1, [R0]    ; Escreve no regist
                                                            rador DIR
  195 00000094         
  196 00000094         ; Configura PM2:PM0 como sa√≠da (LCD)
  197 00000094 4865            LDR              R0, =GPIO_PORTM_DIR_R ; Endere√
                                                            ßo do DIR para a po
                                                            rta M
  198 00000096 F04F 0107       MOV              R1, #0x07   ; Configura PM2‚ÄìP
                                                            M0 como sa√≠da
  199 0000009A 6001            STR              R1, [R0]    ; Escreve no regist
                                                            rador DIR
  200 0000009C         
  201 0000009C         ; Configura PQ3:PQ0 como sa√≠da (displays de 7 segmentos
                       )
  202 0000009C 4864            LDR              R0, =GPIO_PORTQ_DIR_R ; Endere√
                                                            ßo do DIR para a po
                                                            rta Q
  203 0000009E F04F 010F       MOV              R1, #0x0F   ; PQ3:PQ0 como sa√≠
                                                            da



ARM Macro Assembler    Page 9 


  204 000000A2 6001            STR              R1, [R0]    ; Escreve no regist
                                                            rador DIR
  205 000000A4         
  206 000000A4         
  207 000000A4         ; 5. Limpar os bits AFSEL para 0 para selecionar GPIO 
  208 000000A4         ;    Sem funÔøΩÔøΩo alternativa
  209 000000A4 F04F 0100       MOV              R1, #0x00   ; Configura 0 para 
                                                            desabilitar fun√ß√£
                                                            o alternativa
  210 000000A8 4862            LDR              R0, =GPIO_PORTA_AHB_AFSEL_R ; E
                                                            ndere√ßo do AFSEL p
                                                            ara a porta A
  211 000000AA 6001            STR              R1, [R0]    ; Escreve no regist
                                                            rador AFSEL
  212 000000AC 4862            LDR              R0, =GPIO_PORTB_AHB_AFSEL_R ; E
                                                            ndere√ßo do AFSEL p
                                                            ara a porta B
  213 000000AE 6001            STR              R1, [R0]    ; Escreve no regist
                                                            rador AFSEL
  214 000000B0 4862            LDR              R0, =GPIO_PORTJ_AHB_AFSEL_R ; E
                                                            ndere√ßo do AFSEL p
                                                            ara a porta J
  215 000000B2 6001            STR              R1, [R0]    ; Escreve no regist
                                                            rador AFSEL
  216 000000B4 4862            LDR              R0, =GPIO_PORTK_AFSEL_R ; Ender
                                                            e√ßo do AFSEL para 
                                                            a porta K
  217 000000B6 6001            STR              R1, [R0]    ; Escreve no regist
                                                            rador AFSEL
  218 000000B8 4862            LDR              R0, =GPIO_PORTM_AFSEL_R ; Ender
                                                            e√ßo do AFSEL para 
                                                            a porta M
  219 000000BA 6001            STR              R1, [R0]    ; Escreve no regist
                                                            rador AFSEL
  220 000000BC 4862            LDR              R0, =GPIO_PORTQ_AFSEL_R ; Ender
                                                            e√ßo do AFSEL para 
                                                            a porta Q
  221 000000BE 6001            STR              R1, [R0]    ; Escreve no regist
                                                            rador AFSEL
  222 000000C0         
  223 000000C0         ; 6. Setar os bits de DEN para habilitar I/O digital
  224 000000C0 4862            LDR              R0, =GPIO_PORTA_AHB_DEN_R ; End
                                                            ere√ßo do DEN para 
                                                            a porta A
  225 000000C2 F04F 01F0       MOV              R1, #0xF0   ; Habilita PA7:PA4 
                                                            como digital
  226 000000C6 6001            STR              R1, [R0]    ; Escreve no regist
                                                            rador DEN
  227 000000C8         
  228 000000C8 4861            LDR              R0, =GPIO_PORTB_AHB_DEN_R ; End
                                                            ere√ßo do DEN para 
                                                            a porta B
  229 000000CA F04F 0130       MOV              R1, #0x30   ; Habilita PB5 e PB
                                                            4 como digital
  230 000000CE 6001            STR              R1, [R0]    ; Escreve no regist
                                                            rador DEN
  231 000000D0         
  232 000000D0 4860            LDR              R0, =GPIO_PORTJ_AHB_DEN_R ; End
                                                            ere√ßo do DEN para 



ARM Macro Assembler    Page 10 


                                                            a porta J
  233 000000D2 F04F 0103       MOV              R1, #0x03   ; Habilita PJ0 e PJ
                                                            1 como digital
  234 000000D6 6001            STR              R1, [R0]    ; Escreve no regist
                                                            rador DEN
  235 000000D8         
  236 000000D8 485F            LDR              R0, =GPIO_PORTK_DEN_R ; Endere√
                                                            ßo do DEN para a po
                                                            rta K
  237 000000DA F04F 01FF       MOV              R1, #0xFF   ; Habilita todos os
                                                             pinos como digitai
                                                            s (PK7‚ÄìPK0)
  238 000000DE 6001            STR              R1, [R0]    ; Escreve no regist
                                                            rador DEN
  239 000000E0         
  240 000000E0 485E            LDR              R0, =GPIO_PORTM_DEN_R ; Endere√
                                                            ßo do DEN para a po
                                                            rta M
  241 000000E2 F04F 0107       MOV              R1, #0x07   ; Habilita PM2‚ÄìPM
                                                            0 como digitais
  242 000000E6 6001            STR              R1, [R0]    ; Escreve no regist
                                                            rador DEN
  243 000000E8         
  244 000000E8 485D            LDR              R0, =GPIO_PORTQ_DEN_R ; Endere√
                                                            ßo do DEN para a po
                                                            rta Q
  245 000000EA F04F 010F       MOV              R1, #0x0F   ; Habilita PQ3:PQ0 
                                                            como digital
  246 000000EE 6001            STR              R1, [R0]    ; Escreve no regist
                                                            rador DEN
  247 000000F0         
  248 000000F0         ; 7. Para habilitar resistor de pull-up interno, setar P
                       UR para 1
  249 000000F0 485C            LDR              R0, =GPIO_PORTJ_AHB_PUR_R ; End
                                                            ere√ßo do PUR para 
                                                            a porta J
  250 000000F2 F04F 0103       MOV              R1, #0x03   ; Habilita resistor
                                                            es de pull-up para 
                                                            PJ0 e PJ1
  251 000000F6 6001            STR              R1, [R0]    ; Escreve no regist
                                                            rador PUR
  252 000000F8         
  253 000000F8 4770            BX               LR          ; Retorna da fun√ß√
                                                            £o
  254 000000FA         
  255 000000FA         ; ------------------------------------------------------
                       -------------------------
  256 000000FA         ; Fun√ß√£o PortA_Output
  257 000000FA         ; Par√¢metro de entrada: R0 --> Valor a ser escrito nos 
                       pinos PA7:PA4
  258 000000FA         ; Par√¢metro de sa√≠da: Nenhum
  259 000000FA         PortA_Output
  260 000000FA 495B            LDR              R1, =GPIO_PORTA_AHB_DATA_R ; Ca
                                                            rrega o endere√ßo d
                                                            o registrador de da
                                                            dos da porta A
  261 000000FC 680A            LDR              R2, [R1]    ; L√™ o valor atual
                                                             do registrador de 
                                                            dados



ARM Macro Assembler    Page 11 


  262 000000FE F022 02F0       BIC              R2, R2, #0xF0 ; Limpa os bits P
                                                            A7:PA4 (0b11110000)
                                                            
  263 00000102 EA42 0200       ORR              R2, R2, R0  ; Define os bits PA
                                                            7:PA4 com o valor d
                                                            e R0
  264 00000106 600A            STR              R2, [R1]    ; Escreve o valor a
                                                            tualizado no regist
                                                            rador de dados
  265 00000108 4770            BX               LR          ; Retorna da fun√ß√
                                                            £o
  266 0000010A         
  267 0000010A         ; ------------------------------------------------------
                       -------------------------
  268 0000010A         ; Fun√ß√£o PortB_Output
  269 0000010A         ; Par√¢metro de entrada: R0 --> Valor a ser escrito nos 
                       pinos PB5:PB4
  270 0000010A         ; Par√¢metro de sa√≠da: Nenhum
  271 0000010A         PortB_Output
  272 0000010A 4958            LDR              R1, =GPIO_PORTB_AHB_DATA_R ; Ca
                                                            rrega o endere√ßo d
                                                            o registrador de da
                                                            dos da porta B
  273 0000010C 680A            LDR              R2, [R1]    ; L√™ o valor atual
                                                             do registrador de 
                                                            dados
  274 0000010E F022 0230       BIC              R2, R2, #0x30 ; Limpa os bits P
                                                            B5:PB4 (0b00110000)
                                                            
  275 00000112 EA42 0200       ORR              R2, R2, R0  ; Define os bits PB
                                                            5:PB4 com o valor d
                                                            e R0
  276 00000116 600A            STR              R2, [R1]    ; Escreve o valor a
                                                            tualizado no regist
                                                            rador de dados
  277 00000118 4770            BX               LR          ; Retorna da fun√ß√
                                                            £o
  278 0000011A         
  279 0000011A         ; ------------------------------------------------------
                       -------------------------
  280 0000011A         ; Fun√ß√£oo PortJ_Input
  281 0000011A         ; Par√¢metro de entrada: Nenhum
  282 0000011A         ; Par√¢metro de sa√≠da: R0 --> Valor lido dos pinos PJ0
  283 0000011A         PortJ_Input
  284 0000011A 4955            LDR              R1, =GPIO_PORTJ_AHB_DATA_R ;Car
                                                            rega o valor do off
                                                            set do data registe
                                                            r
  285 0000011C 6808            LDR              R0, [R1]    ;L√™ no barramento 
                                                            de dados dos pinos 
                                                            [J0]
  286 0000011E 4770            BX               LR          ;Retorno
  287 00000120         
  288 00000120         ; ------------------------------------------------------
                       -------------------------
  289 00000120         ; Fun√ß√£o PortK_Output
  290 00000120         ; Par√¢metro de entrada: R2 --> Valor a ser escrito nos 
                       pinos PQ3:PQ0
  291 00000120         ; Par√¢metro de sa√≠da: Nenhum



ARM Macro Assembler    Page 12 


  292 00000120         PortK_Output
  293 00000120 B500            PUSH             {LR}
  294 00000122 4B54            LDR              R3, =GPIO_PORTK_DATA_R ; Carreg
                                                            a o endere√ßo do re
                                                            gistrador de dados 
                                                            da porta K
  295 00000124         ;LDR     R4, [R3]                    ; L√™ o valor atual
                        do registrador de dados
  296 00000124 F04F 04FF       MOV              R4, #0xFF   ; Limpa os bits PK7
                                                            :PK0 (0b11111111)
  297 00000128 EA44 0402       ORR              R4, R4, R2  ; Define os bits PK
                                                            7:PK0 com o valor d
                                                            e R0
  298 0000012C 601C            STR              R4, [R3]    ; Escreve o valor a
                                                            tualizado no regist
                                                            rador de dados
  299 0000012E F85D EB04       POP              {LR}
  300 00000132 4770            BX               LR          ; Retorna da fun√ß√
                                                            £o
  301 00000134         
  302 00000134         ; ------------------------------------------------------
                       -------------------------
  303 00000134         ; Fun√ß√£o PortM_Output
  304 00000134         ; Par√¢metro de entrada: R2 --> Valor a ser escrito nos 
                       pinos PQ3:PQ0
  305 00000134         ; Par√¢metro de sa√≠da: Nenhum
  306 00000134         PortM_Output
  307 00000134 B500            PUSH             {LR}
  308 00000136 4B50            LDR              R3, =GPIO_PORTM_DATA_R ; Carreg
                                                            a o endere√ßo do re
                                                            gistrador de dados 
                                                            da porta M
  309 00000138         ;LDR     R4, [R3]                    ; L√™ o valor atual
                        do registrador de dados
  310 00000138 F04F 04FF       MOV              R4, #0xFF   ; Limpa os bits PM2
                                                            :PM0 (0b00000111)
  311 0000013C EA44 0402       ORR              R4, R4, R2  ; Define os bits PM
                                                            2:PM0 com o valor d
                                                            e R0
  312 00000140 601C            STR              R4, [R3]    ; Escreve o valor a
                                                            tualizado no regist
                                                            rador de dados
  313 00000142 F85D EB04       POP              {LR}
  314 00000146 4770            BX               LR          ; Retorna da fun√ß√
                                                            £o
  315 00000148         
  316 00000148         ; ------------------------------------------------------
                       -------------------------
  317 00000148         ; Fun√ß√£o PortQ_Output
  318 00000148         ; Par√¢metro de entrada: R0 --> Valor a ser escrito nos 
                       pinos PQ3:PQ0
  319 00000148         ; Par√¢metro de sa√≠da: Nenhum
  320 00000148         PortQ_Output
  321 00000148 494C            LDR              R1, =GPIO_PORTQ_DATA_R ; Carreg
                                                            a o endere√ßo do re
                                                            gistrador de dados 
                                                            da porta Q
  322 0000014A 680A            LDR              R2, [R1]    ; L√™ o valor atual
                                                             do registrador de 



ARM Macro Assembler    Page 13 


                                                            dados
  323 0000014C F022 020F       BIC              R2, R2, #0x0F ; Limpa os bits P
                                                            Q3:PQ0 (0b00001111)
                                                            
  324 00000150 EA42 0200       ORR              R2, R2, R0  ; Define os bits PQ
                                                            3:PQ0 com o valor d
                                                            e R0
  325 00000154 600A            STR              R2, [R1]    ; Escreve o valor a
                                                            tualizado no regist
                                                            rador de dados
  326 00000156 4770            BX               LR          ; Retorna da fun√ß√
                                                            £o
  327 00000158         
  328 00000158         ; ------------------------------------------------------
                       -------------------------
  329 00000158         ; Fun√ß√£o GPIOPortJ_Init
  330 00000158         ; Configura PJ0 e PJ1 como pinos de interrup√ß√£o
  331 00000158         GPIOPortJ_Init
  332 00000158         ; Configura o registrador de m√°scara de interrup√ß√£o (
                       IM) para a porta J
  333 00000158 4849            LDR              R0, =GPIO_PORTJ_AHB_IM_R ; Carr
                                                            ega o endere√ßo do 
                                                            registrador IM da p
                                                            orta J
  334 0000015A F04F 0100       MOV              R1, #2_00   ; Define o valor 0 
                                                            para desabilitar to
                                                            das as interrup√ß√µ
                                                            es
  335 0000015E 6001            STR              R1, [R0]    ; Escreve o valor n
                                                            o registrador IM
  336 00000160         
  337 00000160         ; Configura o registrador de detec√ß√£o de borda (IS) pa
                       ra a porta J
  338 00000160 4A48            LDR              R2, =GPIO_PORTJ_AHB_IS_R ; Carr
                                                            ega o endere√ßo do 
                                                            registrador IS da p
                                                            orta J
  339 00000162 6011            STR              R1, [R2]    ; Escreve o valor n
                                                            o registrador IS (0
                                                             = detec√ß√£o de bo
                                                            rda)
  340 00000164         
  341 00000164         ; Configura o registrador de detec√ß√£o de borda dupla (
                       IBE) para a porta J
  342 00000164 4B48            LDR              R3, =GPIO_PORTJ_AHB_IBE_R ; Car
                                                            rega o endere√ßo do
                                                             registrador IBE da
                                                             porta J
  343 00000166 6019            STR              R1, [R3]    ; Escreve o valor n
                                                            o registrador IBE (
                                                            0 = borda √∫nica)
  344 00000168         
  345 00000168         ; Configura o registrador de evento de borda (IEV) para 
                       a porta J
  346 00000168 4C48            LDR              R4, =GPIO_PORTJ_AHB_IEV_R ; Car
                                                            rega o endere√ßo do
                                                             registrador IEV da
                                                             porta J
  347 0000016A F04F 0501       MOV              R5, #2_01   ; Define o valor pa



ARM Macro Assembler    Page 14 


                                                            ra detec√ß√£o de bo
                                                            rda de subida
  348 0000016E 6825            LDR              R5, [R4]    ; L√™ o valor do re
                                                            gistrador IEV
  349 00000170         
  350 00000170         ; Limpa as interrup√ß√µes pendentes no registrador ICR
  351 00000170 4E47            LDR              R6, =GPIO_PORTJ_AHB_ICR_R ; Car
                                                            rega o endere√ßo do
                                                             registrador ICR da
                                                             porta J
  352 00000172 F04F 0703       MOV              R7, #2_11   ; Define o valor pa
                                                            ra limpar todas as 
                                                            interrup√ß√µes pend
                                                            entes
  353 00000176 6837            LDR              R7, [R6]    ; L√™ o valor do re
                                                            gistrador ICR
  354 00000178         
  355 00000178         ; Habilita as interrup√ß√µes no registrador IM
  356 00000178 6807            LDR              R7, [R0]    ; L√™ o valor do re
                                                            gistrador IM
  357 0000017A         
  358 0000017A         ; Configura o registrador NVIC para habilitar a interrup
                       √ß√£o da porta J
  359 0000017A F8DF 8118       LDR              R8, =NVIC_EN1_R ; Carrega o end
                                                            ere√ßo do registrad
                                                            or NVIC_EN1
  360 0000017E F04F 0901       MOV              R9, #2_1    ; Define o bit corr
                                                            espondente √† inter
                                                            rup√ß√£o da porta J
                                                            
  361 00000182 EA4F 48C8       LSL              R8, #19     ; Desloca o valor p
                                                            ara a posi√ß√£o cor
                                                            reta
  362 00000186 F8D8 9000       LDR              R9, [R8]    ; L√™ o valor do re
                                                            gistrador NVIC_EN1
  363 0000018A         
  364 0000018A         ; Configura a prioridade da interrup√ß√£o no registrador
                        NVIC_PRI12
  365 0000018A F8DF A10C       LDR              R10, =NVIC_PRI12_R ; Carrega o 
                                                            endere√ßo do regist
                                                            rador NVIC_PRI12
  366 0000018E F04F 0B05       MOV              R11, #5     ; Define a priorida
                                                            de da interrup√ß√£o
                                                            
  367 00000192 EA4F 7A4A       LSL              R10, #29    ; Desloca o valor p
                                                            ara a posi√ß√£o cor
                                                            reta
  368 00000196 F8DA B000       LDR              R11, [R10]  ; L√™ o valor do re
                                                            gistrador NVIC_PRI1
                                                            2
  369 0000019A         
  370 0000019A         ; Retorna da fun√ß√£o
  371 0000019A 4770            BX               LR          ; Retorna para o ch
                                                            amador
  372 0000019C         
  373 0000019C         ; ------------------------------------------------------
                       -------------------------
  374 0000019C         ; Fun√ß√£o GPIOPortJ_Handler
  375 0000019C         ; Gerencia interrup√ß√µes em PJ0 e PJ1, limpando flags



ARM Macro Assembler    Page 15 


  376 0000019C         GPIOPortJ_Handler
  377 0000019C B500            PUSH             {LR}        ; Salva o registrad
                                                            or LR na pilha
  378 0000019E 483F            LDR              R0, =GPIO_PORTJ_AHB_RIS_R ; Car
                                                            rega o endere√ßo do
                                                             registrador RIS da
                                                             porta J
  379 000001A0 6801            LDR              R1, [R0]    ; L√™ o valor do re
                                                            gistrador RIS
  380 000001A2         VerificaJ0
  381 000001A2 2901            CMP              R1, #2_01   ; Compara o valor c
                                                            om o bit correspond
                                                            ente a J0
  382 000001A4 D109            BNE              VerificaJ1  ; Se n√£o for igual
                                                            , vai para Verifica
                                                            J1
  383 000001A6 483A            LDR              R0, =GPIO_PORTJ_AHB_ICR_R ; Car
                                                            rega o endere√ßo do
                                                             registrador ICR da
                                                             porta J
  384 000001A8 F105 0501       ADD              R5, R5, #1
  385 000001AC 2D0A            CMP              R5, #10
  386 000001AE BFA8            IT               GE
  387 000001B0 3D09            SUBGE            R5, R5, #9
  388 000001B2 F04F 0101       MOV              R1, #2_01   ; Define o valor pa
                                                            ra limpar a interru
                                                            p√ß√£o de J0
  389 000001B6 6001            STR              R1, [R0]    ; Escreve no regist
                                                            rador ICR
  390 000001B8 E010            B                Fim_Ver     ; Salta para o fina
                                                            l
  391 000001BA         VerificaJ1
  392 000001BA 2902            CMP              R1, #2_10   ; Compara o valor c
                                                            om o bit correspond
                                                            ente a J1
  393 000001BC D108            BNE              VerificaAmbos ; Se n√£o for igu
                                                            al, vai para Verifi
                                                            caAmbos
  394 000001BE 4834            LDR              R0, =GPIO_PORTJ_AHB_ICR_R ; Car
                                                            rega o endere√ßo do
                                                             registrador ICR da
                                                             porta J
  395 000001C0 2E00            CMP              R6, #0
  396 000001C2 BF0C            ITE              EQ
  397 000001C4 2601            MOVEQ            R6, #1      ; Se R6 = 0, muda o
                                                             modo para 1
  398 000001C6 2600            MOVNE            R6, #0      ; Se R6 = 1, muda o
                                                             modo para 0
  399 000001C8 F04F 0102       MOV              R1, #2_10   ; Define o valor pa
                                                            ra limpar a interru
                                                            p√ß√£o de J1
  400 000001CC 6001            STR              R1, [R0]    ; Escreve no regist
                                                            rador ICR
  401 000001CE E005            B                Fim_Ver     ; Salta para o fina
                                                            l
  402 000001D0         VerificaAmbos
  403 000001D0 2903            CMP              R1, #2_11   ; Compara o valor c
                                                            om os bits correspo
                                                            ndentes a J0 e J1



ARM Macro Assembler    Page 16 


  404 000001D2 D103            BNE              Fim_Ver     ; Se n√£o for igual
                                                            , vai para o final
  405 000001D4 482E            LDR              R0, =GPIO_PORTJ_AHB_ICR_R ; Car
                                                            rega o endere√ßo do
                                                             registrador ICR da
                                                             porta J
  406 000001D6 F04F 0103       MOV              R1, #2_11   ; Define o valor pa
                                                            ra limpar as interr
                                                            up√ß√µes de J0 e J1
                                                            
  407 000001DA 6001            STR              R1, [R0]    ; Escreve no regist
                                                            rador ICR
  408 000001DC         Fim_Ver
  409 000001DC F85D EB04       POP              {LR}        ; Restaura o regist
                                                            rador LR da pilha
  410 000001E0 4770            BX               LR          ; Retorna para o ch
                                                            amador
  411 000001E2         
  412 000001E2 00 00           ALIGN                        ; garante que o fim
                                                             da seÔøΩÔøΩo estÔø
                                                            Ω alinhada 
  413 000001E4                 END                          ; fim do arquivo
              400FE608 
              400FEA08 
              40058528 
              40059528 
              40060528 
              40061528 
              40063528 
              40066528 
              4005852C 
              4005952C 
              4006052C 
              4006152C 
              4006352C 
              4006652C 
              40058400 
              40059400 
              40060400 
              40061400 
              40063400 
              40066400 
              40058420 
              40059420 
              40060420 
              40061420 
              40063420 
              40066420 
              4005851C 
              4005951C 
              4006051C 
              4006151C 
              4006351C 
              4006651C 
              40060510 
              400583FC 
              400593FC 
              400603FC 
              400613FC 



ARM Macro Assembler    Page 17 


              400633FC 
              400663FC 
              40060410 
              40060404 
              40060408 
              4006040C 
              4006041C 
              E000E104 
              E000E430 
              40060414 
Command Line: --debug --xref --diag_suppress=9931,A1950W --cpu=Cortex-M4.fp.sp 
--depend=.\objects\gpio.d -o.\objects\gpio.o -IC:\Users\lucas\AppData\Local\arm
\packs\Keil\TM4C_DFP\1.1.0\Device\Include\TM4C129 --predefine="__EVAL SETA 1" -
-predefine="__UVISION_VERSION SETA 542" --predefine="TM4C129ENCPDT SETA 1" --li
st=.\listings\gpio.lst gpio.s



ARM Macro Assembler    Page 1 Alphabetic symbol ordering
Relocatable symbols

.text 00000000

Symbol: .text
   Definitions
      At line 106 in file gpio.s
   Uses
      None
Comment: .text unused
EsperaGPIO 0000001E

Symbol: EsperaGPIO
   Definitions
      At line 135 in file gpio.s
   Uses
      At line 143 in file gpio.s
Comment: EsperaGPIO used once
Fim_Ver 000001DC

Symbol: Fim_Ver
   Definitions
      At line 408 in file gpio.s
   Uses
      At line 390 in file gpio.s
      At line 401 in file gpio.s
      At line 404 in file gpio.s

GPIOPortJ_Handler 0000019C

Symbol: GPIOPortJ_Handler
   Definitions
      At line 376 in file gpio.s
   Uses
      None
Comment: GPIOPortJ_Handler unused
GPIOPortJ_Init 00000158

Symbol: GPIOPortJ_Init
   Definitions
      At line 331 in file gpio.s
   Uses
      None
Comment: GPIOPortJ_Init unused
GPIO_Init 00000000

Symbol: GPIO_Init
   Definitions
      At line 120 in file gpio.s
   Uses
      At line 108 in file gpio.s
Comment: GPIO_Init used once
PortA_Output 000000FA

Symbol: PortA_Output
   Definitions
      At line 259 in file gpio.s
   Uses
      At line 109 in file gpio.s
Comment: PortA_Output used once
PortB_Output 0000010A



ARM Macro Assembler    Page 2 Alphabetic symbol ordering
Relocatable symbols


Symbol: PortB_Output
   Definitions
      At line 271 in file gpio.s
   Uses
      At line 110 in file gpio.s
Comment: PortB_Output used once
PortJ_Input 0000011A

Symbol: PortJ_Input
   Definitions
      At line 283 in file gpio.s
   Uses
      At line 111 in file gpio.s
Comment: PortJ_Input used once
PortK_Output 00000120

Symbol: PortK_Output
   Definitions
      At line 292 in file gpio.s
   Uses
      At line 112 in file gpio.s
Comment: PortK_Output used once
PortM_Output 00000134

Symbol: PortM_Output
   Definitions
      At line 306 in file gpio.s
   Uses
      At line 113 in file gpio.s
Comment: PortM_Output used once
PortQ_Output 00000148

Symbol: PortQ_Output
   Definitions
      At line 320 in file gpio.s
   Uses
      At line 114 in file gpio.s
Comment: PortQ_Output used once
VerificaAmbos 000001D0

Symbol: VerificaAmbos
   Definitions
      At line 402 in file gpio.s
   Uses
      At line 393 in file gpio.s
Comment: VerificaAmbos used once
VerificaJ0 000001A2

Symbol: VerificaJ0
   Definitions
      At line 380 in file gpio.s
   Uses
      None
Comment: VerificaJ0 unused
VerificaJ1 000001BA

Symbol: VerificaJ1
   Definitions



ARM Macro Assembler    Page 3 Alphabetic symbol ordering
Relocatable symbols

      At line 391 in file gpio.s
   Uses
      At line 382 in file gpio.s
Comment: VerificaJ1 used once
15 symbols



ARM Macro Assembler    Page 1 Alphabetic symbol ordering
Absolute symbols

BIT0 00000001

Symbol: BIT0
   Definitions
      At line 12 in file gpio.s
   Uses
      None
Comment: BIT0 unused
BIT1 00000002

Symbol: BIT1
   Definitions
      At line 13 in file gpio.s
   Uses
      None
Comment: BIT1 unused
GPIO_PORTA 00000001

Symbol: GPIO_PORTA
   Definitions
      At line 31 in file gpio.s
   Uses
      At line 126 in file gpio.s
      At line 136 in file gpio.s

GPIO_PORTA_AHB_AFSEL_R 40058420

Symbol: GPIO_PORTA_AHB_AFSEL_R
   Definitions
      At line 27 in file gpio.s
   Uses
      At line 210 in file gpio.s
Comment: GPIO_PORTA_AHB_AFSEL_R used once
GPIO_PORTA_AHB_AMSEL_R 40058528

Symbol: GPIO_PORTA_AHB_AMSEL_R
   Definitions
      At line 24 in file gpio.s
   Uses
      At line 147 in file gpio.s
Comment: GPIO_PORTA_AHB_AMSEL_R used once
GPIO_PORTA_AHB_CR_R 40058524

Symbol: GPIO_PORTA_AHB_CR_R
   Definitions
      At line 23 in file gpio.s
   Uses
      None
Comment: GPIO_PORTA_AHB_CR_R unused
GPIO_PORTA_AHB_DATA_R 400583FC

Symbol: GPIO_PORTA_AHB_DATA_R
   Definitions
      At line 30 in file gpio.s
   Uses
      At line 260 in file gpio.s
Comment: GPIO_PORTA_AHB_DATA_R used once
GPIO_PORTA_AHB_DEN_R 4005851C




ARM Macro Assembler    Page 2 Alphabetic symbol ordering
Absolute symbols

Symbol: GPIO_PORTA_AHB_DEN_R
   Definitions
      At line 28 in file gpio.s
   Uses
      At line 224 in file gpio.s
Comment: GPIO_PORTA_AHB_DEN_R used once
GPIO_PORTA_AHB_DIR_R 40058400

Symbol: GPIO_PORTA_AHB_DIR_R
   Definitions
      At line 26 in file gpio.s
   Uses
      At line 177 in file gpio.s
Comment: GPIO_PORTA_AHB_DIR_R used once
GPIO_PORTA_AHB_LOCK_R 40058520

Symbol: GPIO_PORTA_AHB_LOCK_R
   Definitions
      At line 22 in file gpio.s
   Uses
      None
Comment: GPIO_PORTA_AHB_LOCK_R unused
GPIO_PORTA_AHB_PCTL_R 4005852C

Symbol: GPIO_PORTA_AHB_PCTL_R
   Definitions
      At line 25 in file gpio.s
   Uses
      At line 162 in file gpio.s
Comment: GPIO_PORTA_AHB_PCTL_R used once
GPIO_PORTA_AHB_PUR_R 40058510

Symbol: GPIO_PORTA_AHB_PUR_R
   Definitions
      At line 29 in file gpio.s
   Uses
      None
Comment: GPIO_PORTA_AHB_PUR_R unused
GPIO_PORTB 00000002

Symbol: GPIO_PORTB
   Definitions
      At line 43 in file gpio.s
   Uses
      At line 127 in file gpio.s
      At line 137 in file gpio.s

GPIO_PORTB_AHB_AFSEL_R 40059420

Symbol: GPIO_PORTB_AHB_AFSEL_R
   Definitions
      At line 39 in file gpio.s
   Uses
      At line 212 in file gpio.s
Comment: GPIO_PORTB_AHB_AFSEL_R used once
GPIO_PORTB_AHB_AMSEL_R 40059528

Symbol: GPIO_PORTB_AHB_AMSEL_R
   Definitions



ARM Macro Assembler    Page 3 Alphabetic symbol ordering
Absolute symbols

      At line 36 in file gpio.s
   Uses
      At line 149 in file gpio.s
Comment: GPIO_PORTB_AHB_AMSEL_R used once
GPIO_PORTB_AHB_CR_R 40059524

Symbol: GPIO_PORTB_AHB_CR_R
   Definitions
      At line 35 in file gpio.s
   Uses
      None
Comment: GPIO_PORTB_AHB_CR_R unused
GPIO_PORTB_AHB_DATA_R 400593FC

Symbol: GPIO_PORTB_AHB_DATA_R
   Definitions
      At line 42 in file gpio.s
   Uses
      At line 272 in file gpio.s
Comment: GPIO_PORTB_AHB_DATA_R used once
GPIO_PORTB_AHB_DEN_R 4005951C

Symbol: GPIO_PORTB_AHB_DEN_R
   Definitions
      At line 40 in file gpio.s
   Uses
      At line 228 in file gpio.s
Comment: GPIO_PORTB_AHB_DEN_R used once
GPIO_PORTB_AHB_DIR_R 40059400

Symbol: GPIO_PORTB_AHB_DIR_R
   Definitions
      At line 38 in file gpio.s
   Uses
      At line 182 in file gpio.s
Comment: GPIO_PORTB_AHB_DIR_R used once
GPIO_PORTB_AHB_LOCK_R 40059520

Symbol: GPIO_PORTB_AHB_LOCK_R
   Definitions
      At line 34 in file gpio.s
   Uses
      None
Comment: GPIO_PORTB_AHB_LOCK_R unused
GPIO_PORTB_AHB_PCTL_R 4005952C

Symbol: GPIO_PORTB_AHB_PCTL_R
   Definitions
      At line 37 in file gpio.s
   Uses
      At line 164 in file gpio.s
Comment: GPIO_PORTB_AHB_PCTL_R used once
GPIO_PORTB_AHB_PUR_R 40059510

Symbol: GPIO_PORTB_AHB_PUR_R
   Definitions
      At line 41 in file gpio.s
   Uses
      None



ARM Macro Assembler    Page 4 Alphabetic symbol ordering
Absolute symbols

Comment: GPIO_PORTB_AHB_PUR_R unused
GPIO_PORTJ 00000100

Symbol: GPIO_PORTJ
   Definitions
      At line 62 in file gpio.s
   Uses
      At line 128 in file gpio.s
      At line 138 in file gpio.s

GPIO_PORTJ_AHB_AFSEL_R 40060420

Symbol: GPIO_PORTJ_AHB_AFSEL_R
   Definitions
      At line 51 in file gpio.s
   Uses
      At line 214 in file gpio.s
Comment: GPIO_PORTJ_AHB_AFSEL_R used once
GPIO_PORTJ_AHB_AMSEL_R 40060528

Symbol: GPIO_PORTJ_AHB_AMSEL_R
   Definitions
      At line 48 in file gpio.s
   Uses
      At line 151 in file gpio.s
Comment: GPIO_PORTJ_AHB_AMSEL_R used once
GPIO_PORTJ_AHB_CR_R 40060524

Symbol: GPIO_PORTJ_AHB_CR_R
   Definitions
      At line 47 in file gpio.s
   Uses
      None
Comment: GPIO_PORTJ_AHB_CR_R unused
GPIO_PORTJ_AHB_DATA_BITS_R 40060000

Symbol: GPIO_PORTJ_AHB_DATA_BITS_R
   Definitions
      At line 55 in file gpio.s
   Uses
      None
Comment: GPIO_PORTJ_AHB_DATA_BITS_R unused
GPIO_PORTJ_AHB_DATA_R 400603FC

Symbol: GPIO_PORTJ_AHB_DATA_R
   Definitions
      At line 54 in file gpio.s
   Uses
      At line 284 in file gpio.s
Comment: GPIO_PORTJ_AHB_DATA_R used once
GPIO_PORTJ_AHB_DEN_R 4006051C

Symbol: GPIO_PORTJ_AHB_DEN_R
   Definitions
      At line 52 in file gpio.s
   Uses
      At line 232 in file gpio.s
Comment: GPIO_PORTJ_AHB_DEN_R used once
GPIO_PORTJ_AHB_DIR_R 40060400



ARM Macro Assembler    Page 5 Alphabetic symbol ordering
Absolute symbols


Symbol: GPIO_PORTJ_AHB_DIR_R
   Definitions
      At line 50 in file gpio.s
   Uses
      At line 187 in file gpio.s
Comment: GPIO_PORTJ_AHB_DIR_R used once
GPIO_PORTJ_AHB_IBE_R 40060408

Symbol: GPIO_PORTJ_AHB_IBE_R
   Definitions
      At line 59 in file gpio.s
   Uses
      At line 342 in file gpio.s
Comment: GPIO_PORTJ_AHB_IBE_R used once
GPIO_PORTJ_AHB_ICR_R 4006041C

Symbol: GPIO_PORTJ_AHB_ICR_R
   Definitions
      At line 57 in file gpio.s
   Uses
      At line 351 in file gpio.s
      At line 383 in file gpio.s
      At line 394 in file gpio.s
      At line 405 in file gpio.s

GPIO_PORTJ_AHB_IEV_R 4006040C

Symbol: GPIO_PORTJ_AHB_IEV_R
   Definitions
      At line 60 in file gpio.s
   Uses
      At line 346 in file gpio.s
Comment: GPIO_PORTJ_AHB_IEV_R used once
GPIO_PORTJ_AHB_IM_R 40060410

Symbol: GPIO_PORTJ_AHB_IM_R
   Definitions
      At line 61 in file gpio.s
   Uses
      At line 333 in file gpio.s
Comment: GPIO_PORTJ_AHB_IM_R used once
GPIO_PORTJ_AHB_IS_R 40060404

Symbol: GPIO_PORTJ_AHB_IS_R
   Definitions
      At line 58 in file gpio.s
   Uses
      At line 338 in file gpio.s
Comment: GPIO_PORTJ_AHB_IS_R used once
GPIO_PORTJ_AHB_LOCK_R 40060520

Symbol: GPIO_PORTJ_AHB_LOCK_R
   Definitions
      At line 46 in file gpio.s
   Uses
      None
Comment: GPIO_PORTJ_AHB_LOCK_R unused
GPIO_PORTJ_AHB_PCTL_R 4006052C



ARM Macro Assembler    Page 6 Alphabetic symbol ordering
Absolute symbols


Symbol: GPIO_PORTJ_AHB_PCTL_R
   Definitions
      At line 49 in file gpio.s
   Uses
      At line 166 in file gpio.s
Comment: GPIO_PORTJ_AHB_PCTL_R used once
GPIO_PORTJ_AHB_PUR_R 40060510

Symbol: GPIO_PORTJ_AHB_PUR_R
   Definitions
      At line 53 in file gpio.s
   Uses
      At line 249 in file gpio.s
Comment: GPIO_PORTJ_AHB_PUR_R used once
GPIO_PORTJ_AHB_RIS_R 40060414

Symbol: GPIO_PORTJ_AHB_RIS_R
   Definitions
      At line 56 in file gpio.s
   Uses
      At line 378 in file gpio.s
Comment: GPIO_PORTJ_AHB_RIS_R used once
GPIO_PORTK 00000200

Symbol: GPIO_PORTK
   Definitions
      At line 74 in file gpio.s
   Uses
      At line 129 in file gpio.s
      At line 139 in file gpio.s

GPIO_PORTK_AFSEL_R 40061420

Symbol: GPIO_PORTK_AFSEL_R
   Definitions
      At line 70 in file gpio.s
   Uses
      At line 216 in file gpio.s
Comment: GPIO_PORTK_AFSEL_R used once
GPIO_PORTK_AMSEL_R 40061528

Symbol: GPIO_PORTK_AMSEL_R
   Definitions
      At line 67 in file gpio.s
   Uses
      At line 153 in file gpio.s
Comment: GPIO_PORTK_AMSEL_R used once
GPIO_PORTK_CR_R 40061524

Symbol: GPIO_PORTK_CR_R
   Definitions
      At line 66 in file gpio.s
   Uses
      None
Comment: GPIO_PORTK_CR_R unused
GPIO_PORTK_DATA_R 400613FC

Symbol: GPIO_PORTK_DATA_R



ARM Macro Assembler    Page 7 Alphabetic symbol ordering
Absolute symbols

   Definitions
      At line 73 in file gpio.s
   Uses
      At line 294 in file gpio.s
Comment: GPIO_PORTK_DATA_R used once
GPIO_PORTK_DEN_R 4006151C

Symbol: GPIO_PORTK_DEN_R
   Definitions
      At line 71 in file gpio.s
   Uses
      At line 236 in file gpio.s
Comment: GPIO_PORTK_DEN_R used once
GPIO_PORTK_DIR_R 40061400

Symbol: GPIO_PORTK_DIR_R
   Definitions
      At line 69 in file gpio.s
   Uses
      At line 192 in file gpio.s
Comment: GPIO_PORTK_DIR_R used once
GPIO_PORTK_LOCK_R 40061520

Symbol: GPIO_PORTK_LOCK_R
   Definitions
      At line 65 in file gpio.s
   Uses
      None
Comment: GPIO_PORTK_LOCK_R unused
GPIO_PORTK_PCTL_R 4006152C

Symbol: GPIO_PORTK_PCTL_R
   Definitions
      At line 68 in file gpio.s
   Uses
      At line 168 in file gpio.s
Comment: GPIO_PORTK_PCTL_R used once
GPIO_PORTK_PUR_R 40061510

Symbol: GPIO_PORTK_PUR_R
   Definitions
      At line 72 in file gpio.s
   Uses
      None
Comment: GPIO_PORTK_PUR_R unused
GPIO_PORTM 00000800

Symbol: GPIO_PORTM
   Definitions
      At line 86 in file gpio.s
   Uses
      At line 130 in file gpio.s
      At line 140 in file gpio.s

GPIO_PORTM_AFSEL_R 40063420

Symbol: GPIO_PORTM_AFSEL_R
   Definitions
      At line 82 in file gpio.s



ARM Macro Assembler    Page 8 Alphabetic symbol ordering
Absolute symbols

   Uses
      At line 218 in file gpio.s
Comment: GPIO_PORTM_AFSEL_R used once
GPIO_PORTM_AMSEL_R 40063528

Symbol: GPIO_PORTM_AMSEL_R
   Definitions
      At line 79 in file gpio.s
   Uses
      At line 155 in file gpio.s
Comment: GPIO_PORTM_AMSEL_R used once
GPIO_PORTM_CR_R 40063524

Symbol: GPIO_PORTM_CR_R
   Definitions
      At line 78 in file gpio.s
   Uses
      None
Comment: GPIO_PORTM_CR_R unused
GPIO_PORTM_DATA_R 400633FC

Symbol: GPIO_PORTM_DATA_R
   Definitions
      At line 85 in file gpio.s
   Uses
      At line 308 in file gpio.s
Comment: GPIO_PORTM_DATA_R used once
GPIO_PORTM_DEN_R 4006351C

Symbol: GPIO_PORTM_DEN_R
   Definitions
      At line 83 in file gpio.s
   Uses
      At line 240 in file gpio.s
Comment: GPIO_PORTM_DEN_R used once
GPIO_PORTM_DIR_R 40063400

Symbol: GPIO_PORTM_DIR_R
   Definitions
      At line 81 in file gpio.s
   Uses
      At line 197 in file gpio.s
Comment: GPIO_PORTM_DIR_R used once
GPIO_PORTM_LOCK_R 40063520

Symbol: GPIO_PORTM_LOCK_R
   Definitions
      At line 77 in file gpio.s
   Uses
      None
Comment: GPIO_PORTM_LOCK_R unused
GPIO_PORTM_PCTL_R 4006352C

Symbol: GPIO_PORTM_PCTL_R
   Definitions
      At line 80 in file gpio.s
   Uses
      At line 170 in file gpio.s
Comment: GPIO_PORTM_PCTL_R used once



ARM Macro Assembler    Page 9 Alphabetic symbol ordering
Absolute symbols

GPIO_PORTM_PUR_R 40063510

Symbol: GPIO_PORTM_PUR_R
   Definitions
      At line 84 in file gpio.s
   Uses
      None
Comment: GPIO_PORTM_PUR_R unused
GPIO_PORTQ 00004000

Symbol: GPIO_PORTQ
   Definitions
      At line 98 in file gpio.s
   Uses
      At line 131 in file gpio.s
      At line 141 in file gpio.s

GPIO_PORTQ_AFSEL_R 40066420

Symbol: GPIO_PORTQ_AFSEL_R
   Definitions
      At line 94 in file gpio.s
   Uses
      At line 220 in file gpio.s
Comment: GPIO_PORTQ_AFSEL_R used once
GPIO_PORTQ_AMSEL_R 40066528

Symbol: GPIO_PORTQ_AMSEL_R
   Definitions
      At line 91 in file gpio.s
   Uses
      At line 157 in file gpio.s
Comment: GPIO_PORTQ_AMSEL_R used once
GPIO_PORTQ_CR_R 40066524

Symbol: GPIO_PORTQ_CR_R
   Definitions
      At line 90 in file gpio.s
   Uses
      None
Comment: GPIO_PORTQ_CR_R unused
GPIO_PORTQ_DATA_R 400663FC

Symbol: GPIO_PORTQ_DATA_R
   Definitions
      At line 97 in file gpio.s
   Uses
      At line 321 in file gpio.s
Comment: GPIO_PORTQ_DATA_R used once
GPIO_PORTQ_DEN_R 4006651C

Symbol: GPIO_PORTQ_DEN_R
   Definitions
      At line 95 in file gpio.s
   Uses
      At line 244 in file gpio.s
Comment: GPIO_PORTQ_DEN_R used once
GPIO_PORTQ_DIR_R 40066400




ARM Macro Assembler    Page 10 Alphabetic symbol ordering
Absolute symbols

Symbol: GPIO_PORTQ_DIR_R
   Definitions
      At line 93 in file gpio.s
   Uses
      At line 202 in file gpio.s
Comment: GPIO_PORTQ_DIR_R used once
GPIO_PORTQ_LOCK_R 40066520

Symbol: GPIO_PORTQ_LOCK_R
   Definitions
      At line 89 in file gpio.s
   Uses
      None
Comment: GPIO_PORTQ_LOCK_R unused
GPIO_PORTQ_PCTL_R 4006652C

Symbol: GPIO_PORTQ_PCTL_R
   Definitions
      At line 92 in file gpio.s
   Uses
      At line 172 in file gpio.s
Comment: GPIO_PORTQ_PCTL_R used once
GPIO_PORTQ_PUR_R 40066510

Symbol: GPIO_PORTQ_PUR_R
   Definitions
      At line 96 in file gpio.s
   Uses
      None
Comment: GPIO_PORTQ_PUR_R unused
NVIC_EN1_R E000E104

Symbol: NVIC_EN1_R
   Definitions
      At line 100 in file gpio.s
   Uses
      At line 359 in file gpio.s
Comment: NVIC_EN1_R used once
NVIC_PRI12_R E000E430

Symbol: NVIC_PRI12_R
   Definitions
      At line 101 in file gpio.s
   Uses
      At line 365 in file gpio.s
Comment: NVIC_PRI12_R used once
SYSCTL_PRGPIO_R 400FEA08

Symbol: SYSCTL_PRGPIO_R
   Definitions
      At line 17 in file gpio.s
   Uses
      At line 134 in file gpio.s
Comment: SYSCTL_PRGPIO_R used once
SYSCTL_RCGCGPIO_R 400FE608

Symbol: SYSCTL_RCGCGPIO_R
   Definitions
      At line 16 in file gpio.s



ARM Macro Assembler    Page 11 Alphabetic symbol ordering
Absolute symbols

   Uses
      At line 125 in file gpio.s
Comment: SYSCTL_RCGCGPIO_R used once
73 symbols



ARM Macro Assembler    Page 1 Alphabetic symbol ordering
External symbols

SysTick_Wait1ms 00000000

Symbol: SysTick_Wait1ms
   Definitions
      At line 115 in file gpio.s
   Uses
      None
Comment: SysTick_Wait1ms unused
1 symbol
425 symbols in table
