


ARM Macro Assembler    Page 1 


    1 00000000         ; gpio.s
    2 00000000         ; Desenvolvido para a placa EK-TM4C129EXL
    3 00000000         ; Matheus Passos, Lucas Yukio, Jo√£o Castilho Cardoso
    4 00000000         
    5 00000000         ; ------------------------------------------------------
                       -------------------------
    6 00000000                 THUMB                        ; Instru√ß√µes do t
                                                            ipo Thumb-2
    7 00000000         ; ------------------------------------------------------
                       -------------------------
    8 00000000         ; Declara√ß√µes EQU - Defines
    9 00000000         ; ========================
   10 00000000         ; Defini√ß√µes de Valores
   11 00000000 00000001 
                       BIT0    EQU              2_0001
   12 00000000 00000002 
                       BIT1    EQU              2_0010
   13 00000000         ; ========================
   14 00000000         ; Defini√ß√µes dos Registradores Gerais
   15 00000000 400FE608 
                       SYSCTL_RCGCGPIO_R
                               EQU              0x400FE608
   16 00000000 400FEA08 
                       SYSCTL_PRGPIO_R
                               EQU              0x400FEA08
   17 00000000         ; ========================
   18 00000000         ; Defini√ß√µes dos Ports
   19 00000000         
   20 00000000         ; PORT A
   21 00000000 40058528 
                       GPIO_PORTA_AHB_AMSEL_R
                               EQU              0x40058528
   22 00000000 4005852C 
                       GPIO_PORTA_AHB_PCTL_R
                               EQU              0x4005852C
   23 00000000 40058400 
                       GPIO_PORTA_AHB_DIR_R
                               EQU              0x40058400
   24 00000000 40058420 
                       GPIO_PORTA_AHB_AFSEL_R
                               EQU              0x40058420
   25 00000000 4005851C 
                       GPIO_PORTA_AHB_DEN_R
                               EQU              0x4005851C
   26 00000000 400583FC 
                       GPIO_PORTA_AHB_DATA_R
                               EQU              0x400583FC
   27 00000000 00000001 
                       GPIO_PORTA
                               EQU              2_000000000000001
   28 00000000         
   29 00000000         ; PORT B
   30 00000000 40059528 
                       GPIO_PORTB_AHB_AMSEL_R
                               EQU              0x40059528
   31 00000000 4005952C 
                       GPIO_PORTB_AHB_PCTL_R
                               EQU              0x4005952C
   32 00000000 40059400 



ARM Macro Assembler    Page 2 


                       GPIO_PORTB_AHB_DIR_R
                               EQU              0x40059400
   33 00000000 40059420 
                       GPIO_PORTB_AHB_AFSEL_R
                               EQU              0x40059420
   34 00000000 4005951C 
                       GPIO_PORTB_AHB_DEN_R
                               EQU              0x4005951C
   35 00000000 40059510 
                       GPIO_PORTB_AHB_PUR_R
                               EQU              0x40059510
   36 00000000 400593FC 
                       GPIO_PORTB_AHB_DATA_R
                               EQU              0x400593FC
   37 00000000 00000002 
                       GPIO_PORTB
                               EQU              2_000000000000010
   38 00000000         
   39 00000000         ; PORT J
   40 00000000 40060528 
                       GPIO_PORTJ_AHB_AMSEL_R
                               EQU              0x40060528
   41 00000000 4006052C 
                       GPIO_PORTJ_AHB_PCTL_R
                               EQU              0x4006052C
   42 00000000 40060400 
                       GPIO_PORTJ_AHB_DIR_R
                               EQU              0x40060400
   43 00000000 40060420 
                       GPIO_PORTJ_AHB_AFSEL_R
                               EQU              0x40060420
   44 00000000 4006051C 
                       GPIO_PORTJ_AHB_DEN_R
                               EQU              0x4006051C
   45 00000000 40060510 
                       GPIO_PORTJ_AHB_PUR_R
                               EQU              0x40060510
   46 00000000 40060414 
                       GPIO_PORTJ_AHB_RIS_R
                               EQU              0x40060414
   47 00000000 4006041C 
                       GPIO_PORTJ_AHB_ICR_R
                               EQU              0x4006041C
   48 00000000 40060404 
                       GPIO_PORTJ_AHB_IS_R
                               EQU              0x40060404
   49 00000000 40060408 
                       GPIO_PORTJ_AHB_IBE_R
                               EQU              0x40060408
   50 00000000 4006040C 
                       GPIO_PORTJ_AHB_IEV_R
                               EQU              0x4006040C
   51 00000000 40060410 
                       GPIO_PORTJ_AHB_IM_R
                               EQU              0x40060410
   52 00000000 00000100 
                       GPIO_PORTJ
                               EQU              2_000000100000000
   53 00000000         



ARM Macro Assembler    Page 3 


   54 00000000         ; PORT K
   55 00000000 40061528 
                       GPIO_PORTK_AMSEL_R
                               EQU              0x40061528
   56 00000000 4006152C 
                       GPIO_PORTK_PCTL_R
                               EQU              0x4006152C
   57 00000000 40061400 
                       GPIO_PORTK_DIR_R
                               EQU              0x40061400
   58 00000000 40061420 
                       GPIO_PORTK_AFSEL_R
                               EQU              0x40061420
   59 00000000 4006151C 
                       GPIO_PORTK_DEN_R
                               EQU              0x4006151C
   60 00000000 400613FC 
                       GPIO_PORTK_DATA_R
                               EQU              0x400613FC
   61 00000000 00000200 
                       GPIO_PORTK
                               EQU              2_000001000000000
   62 00000000         
   63 00000000         ; PORT M
   64 00000000 40063528 
                       GPIO_PORTM_AMSEL_R
                               EQU              0x40063528
   65 00000000 4006352C 
                       GPIO_PORTM_PCTL_R
                               EQU              0x4006352C
   66 00000000 40063400 
                       GPIO_PORTM_DIR_R
                               EQU              0x40063400
   67 00000000 40063420 
                       GPIO_PORTM_AFSEL_R
                               EQU              0x40063420
   68 00000000 4006351C 
                       GPIO_PORTM_DEN_R
                               EQU              0x4006351C
   69 00000000 400633FC 
                       GPIO_PORTM_DATA_R
                               EQU              0x400633FC
   70 00000000 00000800 
                       GPIO_PORTM
                               EQU              2_000100000000000
   71 00000000         
   72 00000000         ; PORT P
   73 00000000 40065528 
                       GPIO_PORTP_AMSEL_R
                               EQU              0x40065528
   74 00000000 4006552C 
                       GPIO_PORTP_PCTL_R
                               EQU              0x4006552C
   75 00000000 40065400 
                       GPIO_PORTP_DIR_R
                               EQU              0x40065400
   76 00000000 40065420 
                       GPIO_PORTP_AFSEL_R
                               EQU              0x40065420



ARM Macro Assembler    Page 4 


   77 00000000 4006551C 
                       GPIO_PORTP_DEN_R
                               EQU              0x4006551C
   78 00000000 400653FC 
                       GPIO_PORTP_DATA_R
                               EQU              0x400653FC
   79 00000000 00002000 
                       GPIO_PORTP
                               EQU              2_010000000000000
   80 00000000         
   81 00000000         ; PORT Q
   82 00000000 40066528 
                       GPIO_PORTQ_AMSEL_R
                               EQU              0x40066528
   83 00000000 4006652C 
                       GPIO_PORTQ_PCTL_R
                               EQU              0x4006652C
   84 00000000 40066400 
                       GPIO_PORTQ_DIR_R
                               EQU              0x40066400
   85 00000000 40066420 
                       GPIO_PORTQ_AFSEL_R
                               EQU              0x40066420
   86 00000000 4006651C 
                       GPIO_PORTQ_DEN_R
                               EQU              0x4006651C
   87 00000000 400663FC 
                       GPIO_PORTQ_DATA_R
                               EQU              0x400663FC
   88 00000000 00004000 
                       GPIO_PORTQ
                               EQU              2_100000000000000
   89 00000000         
   90 00000000         ; NVIC
   91 00000000 E000E104 
                       NVIC_EN1_R
                               EQU              0xE000E104
   92 00000000 E000E430 
                       NVIC_PRI12_R
                               EQU              0xE000E430
   93 00000000         
   94 00000000         ; ------------------------------------------------------
                       -------------------------
   95 00000000         ; √Årea de C√≥digo - Tudo abaixo da diretiva a seguir se
                       r√° armazenado na mem√≥ria de c√≥digo
   96 00000000                 AREA             |.text|, CODE, READONLY, ALIGN=
2
   97 00000000         ; Se alguma fun√ß√£o do arquivo for chamada em outro arq
                       uivo
   98 00000000                 EXPORT           GPIO_Init   ; Permite chamar GP
                                                            IO_Init de outro ar
                                                            quivo
   99 00000000                 EXPORT           PortA_Output ; Permite chamar P
                                                            ortA_Output de outr
                                                            o arquivo
  100 00000000                 EXPORT           PortB_Output ; Permite chamar P
                                                            ortB_Output de outr
                                                            o arquivo
  101 00000000                 EXPORT           PortK_Output ; Permite chamar P



ARM Macro Assembler    Page 5 


                                                            ortK_Output de outr
                                                            o arquivo
  102 00000000                 EXPORT           PortM_Output ; Permite chamar P
                                                            ortM_Output de outr
                                                            o arquivo
  103 00000000                 EXPORT           PortP_Output ; Permite chamar P
                                                            ortP_Output de outr
                                                            o arquivo
  104 00000000                 EXPORT           PortQ_Output ; Permite chamar P
                                                            ortQ_Output de outr
                                                            o arquivo
  105 00000000                 EXPORT           GPIOPortJ_Init ; Permite chamar
                                                             GPIO_PortJ_Init de
                                                             outro arquivo
  106 00000000                 EXPORT           GPIOPortJ_Handler ; Permite ace
                                                            sso do sistem ao GP
                                                            IOPortJ_Handler
  107 00000000         
  108 00000000         ;-------------------------------------------------------
                       -------------------------
  109 00000000         ; Fun√ß√£o GPIO_Init
  110 00000000         ; Par√¢metro de entrada: N√£o tem
  111 00000000         ; Par√¢metro de sa√≠da: N√£o tem
  112 00000000         GPIO_Init
  113 00000000         ;=====================
  114 00000000         ; 1. Ativar o clock para a porta setando o bit correspon
                       dente no registrador RCGCGPIO,
  115 00000000         ; ap√≥s isso verificar no PRGPIO se a porta est√° pronta
                        para uso.
  116 00000000         ; enable clock to GPIOF at clock gating register
  117 00000000 B507            PUSH             {R0, R1, R2, LR} ; Salva os reg
                                                            istradores que ser√
                                                            £o usados na pilha
  118 00000002 488E            LDR              R0, =SYSCTL_RCGCGPIO_R ; Carreg
                                                            a o endere√ßo do re
                                                            gistrador RCGCGPIO
  119 00000004 F04F 0101       MOV              R1, #GPIO_PORTA ; Ativa o clock
                                                             para a porta A
  120 00000008 F041 0102       ORR              R1, #GPIO_PORTB ; Ativa o clock
                                                             para a porta B
  121 0000000C F441 7180       ORR              R1, #GPIO_PORTJ ; Ativa o clock
                                                             para a porta J
  122 00000010 F441 7100       ORR              R1, #GPIO_PORTK ; Ativa o clock
                                                             para a porta K
  123 00000014 F441 6100       ORR              R1, #GPIO_PORTM ; Ativa o clock
                                                             para a porta M
  124 00000018 F441 5100       ORR              R1, #GPIO_PORTP ; Ativa o clock
                                                             para a porta P
  125 0000001C F441 4180       ORR              R1, #GPIO_PORTQ ; Ativa o clock
                                                             para a porta Q
  126 00000020 6001            STR              R1, [R0]    ; Move para a mem√≥
                                                            ria os bits das por
                                                            tas no endere√ßo do
                                                             RCGCGPIO
  127 00000022         
  128 00000022 4887            LDR              R0, =SYSCTL_PRGPIO_R ; Carrega 
                                                            o endere√ßo do PRGP
                                                            IO para esperar os 
                                                            GPIO ficarem pronto



ARM Macro Assembler    Page 6 


                                                            s
  129 00000024         EsperaGPIO
  130 00000024 6801            LDR              R1, [R0]    ; L√™ da mem√≥ria o
                                                             conte√∫do do ender
                                                            e√ßo do registrador
                                                            
  131 00000026 F04F 0201       MOV              R2, #GPIO_PORTA ; Configura os 
                                                            bits para verificar
                                                             a porta A
  132 0000002A F042 0202       ORR              R2, #GPIO_PORTB ; Configura os 
                                                            bits para verificar
                                                             a porta B
  133 0000002E F442 7280       ORR              R2, #GPIO_PORTJ ; Configura os 
                                                            bits para verificar
                                                             a porta J
  134 00000032 F442 7200       ORR              R2, #GPIO_PORTK ; Configura os 
                                                            bits para verificar
                                                             a porta K
  135 00000036 F442 6200       ORR              R2, #GPIO_PORTM ; Configura os 
                                                            bits para verificar
                                                             a porta M
  136 0000003A F442 5200       ORR              R2, #GPIO_PORTP ; Configura os 
                                                            bits para verificar
                                                             a porta P
  137 0000003E F442 4280       ORR              R2, #GPIO_PORTQ ; Configura os 
                                                            bits para verificar
                                                             a porta Q
  138 00000042 4211            TST              R1, R2      ; Testa o R1 com R2
                                                             fazendo R1 & R2
  139 00000044 D0EE            BEQ              EsperaGPIO  ; Se o flag Z=1, vo
                                                            lta para o la√ßo. S
                                                            en√£o continua exec
                                                            utando
  140 00000046         
  141 00000046         ; 2. Limpar o AMSEL para desabilitar a anal√≥gica
  142 00000046 F04F 0100       MOV              R1, #0x00   ; Colocar 0 no regi
                                                            strador para desabi
                                                            litar a fun√ß√£o an
                                                            al√≥gica
  143 0000004A 487E            LDR              R0, =GPIO_PORTA_AHB_AMSEL_R ; E
                                                            ndere√ßo do AMSEL p
                                                            ara a porta A
  144 0000004C 6001            STR              R1, [R0]    ; Escreve no regist
                                                            rador AMSEL
  145 0000004E 487E            LDR              R0, =GPIO_PORTB_AHB_AMSEL_R ; E
                                                            ndere√ßo do AMSEL p
                                                            ara a porta B
  146 00000050 6001            STR              R1, [R0]    ; Escreve no regist
                                                            rador AMSEL
  147 00000052 487E            LDR              R0, =GPIO_PORTJ_AHB_AMSEL_R ; E
                                                            ndere√ßo do AMSEL p
                                                            ara a porta J
  148 00000054 6001            STR              R1, [R0]    ; Escreve no regist
                                                            rador AMSEL
  149 00000056 487E            LDR              R0, =GPIO_PORTK_AMSEL_R ; Ender
                                                            e√ßo do AMSEL para 
                                                            a porta K
  150 00000058 6001            STR              R1, [R0]    ; Escreve no regist
                                                            rador AMSEL



ARM Macro Assembler    Page 7 


  151 0000005A 487E            LDR              R0, =GPIO_PORTM_AMSEL_R ; Ender
                                                            e√ßo do AMSEL para 
                                                            a porta M
  152 0000005C 6001            STR              R1, [R0]    ; Escreve no regist
                                                            rador AMSEL
  153 0000005E 487E            LDR              R0, =GPIO_PORTP_AMSEL_R ; Ender
                                                            e√ßo do AMSEL para 
                                                            a porta P
  154 00000060 6001            STR              R1, [R0]    ; Escreve no regist
                                                            rador AMSEL
  155 00000062 487E            LDR              R0, =GPIO_PORTQ_AMSEL_R ; Ender
                                                            e√ßo do AMSEL para 
                                                            a porta Q
  156 00000064 6001            STR              R1, [R0]    ; Escreve no regist
                                                            rador AMSEL
  157 00000066         
  158 00000066         ; 3. Limpar PCTL para selecionar o GPIO
  159 00000066 F04F 0100       MOV              R1, #0x00   ; Configura 0 para 
                                                            selecionar GPIO
  160 0000006A 487D            LDR              R0, =GPIO_PORTA_AHB_PCTL_R ; En
                                                            dere√ßo do PCTL par
                                                            a a porta A
  161 0000006C 6001            STR              R1, [R0]    ; Escreve no regist
                                                            rador PCTL
  162 0000006E 487D            LDR              R0, =GPIO_PORTB_AHB_PCTL_R ; En
                                                            dere√ßo do PCTL par
                                                            a a porta B
  163 00000070 6001            STR              R1, [R0]    ; Escreve no regist
                                                            rador PCTL
  164 00000072 487D            LDR              R0, =GPIO_PORTJ_AHB_PCTL_R ; En
                                                            dere√ßo do PCTL par
                                                            a a porta J
  165 00000074 6001            STR              R1, [R0]    ; Escreve no regist
                                                            rador PCTL
  166 00000076 487D            LDR              R0, =GPIO_PORTK_PCTL_R ; Endere
                                                            √ßo do PCTL para a 
                                                            porta K
  167 00000078 6001            STR              R1, [R0]    ; Escreve no regist
                                                            rador PCTL
  168 0000007A 487D            LDR              R0, =GPIO_PORTM_PCTL_R ; Endere
                                                            √ßo do PCTL para a 
                                                            porta M
  169 0000007C 6001            STR              R1, [R0]    ; Escreve no regist
                                                            rador PCTL
  170 0000007E 487D            LDR              R0, =GPIO_PORTP_PCTL_R ; Endere
                                                            √ßo do PCTL para a 
                                                            porta P
  171 00000080 6001            STR              R1, [R0]    ; Escreve no regist
                                                            rador PCTL
  172 00000082 487D            LDR              R0, =GPIO_PORTQ_PCTL_R ; Endere
                                                            √ßo do PCTL para a 
                                                            porta Q
  173 00000084 6001            STR              R1, [R0]    ; Escreve no regist
                                                            rador PCTL
  174 00000086         
  175 00000086         ; 4. DIR para 0 se for entrada, 1 se for sa√≠da
  176 00000086         ; Configura PA7:PA4 como sa√≠da (displays de 7 segmentos
                       )
  177 00000086 487D            LDR              R0, =GPIO_PORTA_AHB_DIR_R ; End



ARM Macro Assembler    Page 8 


                                                            ere√ßo do DIR para 
                                                            a porta A
  178 00000088 F04F 01F0       MOV              R1, #2_11110000 ; PA7:PA4 como 
                                                            sa√≠da
  179 0000008C 6001            STR              R1, [R0]    ; Escreve no regist
                                                            rador DIR
  180 0000008E         
  181 0000008E         ; Configura PB5 e PB4 como sa√≠da (transistores)
  182 0000008E 487C            LDR              R0, =GPIO_PORTB_AHB_DIR_R ; End
                                                            ere√ßo do DIR para 
                                                            a porta B
  183 00000090 F04F 0130       MOV              R1, #2_00110000 ; PB5 e PB4 com
                                                            o sa√≠da
  184 00000094 6001            STR              R1, [R0]    ; Escreve no regist
                                                            rador DIR
  185 00000096         
  186 00000096         ; Configura PJ0 e PJ1 como entrada (bot√µes USR_SW1 e US
                       R_SW2)
  187 00000096 487B            LDR              R0, =GPIO_PORTJ_AHB_DIR_R ; End
                                                            ere√ßo do DIR para 
                                                            a porta J
  188 00000098 F04F 0100       MOV              R1, #0x00000000 ; PJ0 e PJ1 com
                                                            o entrada
  189 0000009C 6001            STR              R1, [R0]    ; Escreve no regist
                                                            rador DIR
  190 0000009E         
  191 0000009E         ; Configura PK7:PK0 como sa√≠da (LCD)
  192 0000009E 487A            LDR              R0, =GPIO_PORTK_DIR_R ; Endere√
                                                            ßo do DIR para a po
                                                            rta K
  193 000000A0 F04F 01FF       MOV              R1, #2_11111111 ; Configura PK7
                                                            ‚ÄìPK0 como sa√≠da
  194 000000A4 6001            STR              R1, [R0]    ; Escreve no regist
                                                            rador DIR
  195 000000A6         
  196 000000A6         ; Configura PM2:PM0 como sa√≠da (LCD)
  197 000000A6 4879            LDR              R0, =GPIO_PORTM_DIR_R ; Endere√
                                                            ßo do DIR para a po
                                                            rta M
  198 000000A8 F04F 0107       MOV              R1, #2_00000111 ; Configura PM2
                                                            ‚ÄìPM0 como sa√≠da
  199 000000AC 6001            STR              R1, [R0]    ; Escreve no regist
                                                            rador DIR
  200 000000AE         
  201 000000AE         ; Configura PP5 como sa√≠da (LEDs)
  202 000000AE 4878            LDR              R0, =GPIO_PORTP_DIR_R ; Endere√
                                                            ßo do DIR para a po
                                                            rta P
  203 000000B0 F04F 0120       MOV              R1, #2_00100000 ; Configura PP5
                                                             como sa√≠da
  204 000000B4 6001            STR              R1, [R0]    ; Escreve no regist
                                                            rador DIR
  205 000000B6         
  206 000000B6         ; Configura PQ3:PQ0 como sa√≠da (displays de 7 segmentos
                       )
  207 000000B6 4877            LDR              R0, =GPIO_PORTQ_DIR_R ; Endere√
                                                            ßo do DIR para a po
                                                            rta Q
  208 000000B8 F04F 010F       MOV              R1, #2_00001111 ; PQ3:PQ0 como 



ARM Macro Assembler    Page 9 


                                                            sa√≠da
  209 000000BC 6001            STR              R1, [R0]    ; Escreve no regist
                                                            rador DIR
  210 000000BE         
  211 000000BE         ; 5. Limpar os bits AFSEL para 0 para selecionar GPIO
  212 000000BE         ;    Sem fun√ß√£o alternativa
  213 000000BE F04F 0100       MOV              R1, #0x00   ; Configura 0 para 
                                                            desabilitar fun√ß√£
                                                            o alternativa
  214 000000C2 4875            LDR              R0, =GPIO_PORTA_AHB_AFSEL_R ; E
                                                            ndere√ßo do AFSEL p
                                                            ara a porta A
  215 000000C4 6001            STR              R1, [R0]    ; Escreve no regist
                                                            rador AFSEL
  216 000000C6 4875            LDR              R0, =GPIO_PORTB_AHB_AFSEL_R ; E
                                                            ndere√ßo do AFSEL p
                                                            ara a porta B
  217 000000C8 6001            STR              R1, [R0]    ; Escreve no regist
                                                            rador AFSEL
  218 000000CA 4875            LDR              R0, =GPIO_PORTJ_AHB_AFSEL_R ; E
                                                            ndere√ßo do AFSEL p
                                                            ara a porta J
  219 000000CC 6001            STR              R1, [R0]    ; Escreve no regist
                                                            rador AFSEL
  220 000000CE 4875            LDR              R0, =GPIO_PORTK_AFSEL_R ; Ender
                                                            e√ßo do AFSEL para 
                                                            a porta K
  221 000000D0 6001            STR              R1, [R0]    ; Escreve no regist
                                                            rador AFSEL
  222 000000D2 4875            LDR              R0, =GPIO_PORTM_AFSEL_R ; Ender
                                                            e√ßo do AFSEL para 
                                                            a porta M
  223 000000D4 6001            STR              R1, [R0]    ; Escreve no regist
                                                            rador AFSEL
  224 000000D6 4875            LDR              R0, =GPIO_PORTP_AFSEL_R ; Ender
                                                            e√ßo do AFSEL para 
                                                            a porta P
  225 000000D8 6001            STR              R1, [R0]    ; Escreve no regist
                                                            rador AFSEL
  226 000000DA 4875            LDR              R0, =GPIO_PORTQ_AFSEL_R ; Ender
                                                            e√ßo do AFSEL para 
                                                            a porta Q
  227 000000DC 6001            STR              R1, [R0]    ; Escreve no regist
                                                            rador AFSEL
  228 000000DE         
  229 000000DE         ; 6. Setar os bits de DEN para habilitar I/O digital
  230 000000DE 4875            LDR              R0, =GPIO_PORTA_AHB_DEN_R ; End
                                                            ere√ßo do DEN para 
                                                            a porta A
  231 000000E0 F04F 01F0       MOV              R1, #2_11110000 ; Habilita PA7:
                                                            PA4 como digital
  232 000000E4 6001            STR              R1, [R0]    ; Escreve no regist
                                                            rador DEN
  233 000000E6         
  234 000000E6 4874            LDR              R0, =GPIO_PORTB_AHB_DEN_R ; End
                                                            ere√ßo do DEN para 
                                                            a porta B
  235 000000E8 F04F 0130       MOV              R1, #2_00110000 ; Habilita PB5 
                                                            e PB4 como digital



ARM Macro Assembler    Page 10 


  236 000000EC 6001            STR              R1, [R0]    ; Escreve no regist
                                                            rador DEN
  237 000000EE         
  238 000000EE 4873            LDR              R0, =GPIO_PORTJ_AHB_DEN_R ; End
                                                            ere√ßo do DEN para 
                                                            a porta J
  239 000000F0 F04F 0103       MOV              R1, #0x03   ; Bits 1:0 = 1, hab
                                                            ilita PJ0 e PJ1 com
                                                            o digitais
  240 000000F4 6001            STR              R1, [R0]    ; Escreve no regist
                                                            rador DEN
  241 000000F6         
  242 000000F6 4872            LDR              R0, =GPIO_PORTK_DEN_R ; Endere√
                                                            ßo do DEN para a po
                                                            rta K
  243 000000F8 F04F 01FF       MOV              R1, #2_11111111 ; Habilita todo
                                                            s os pinos como dig
                                                            itais (PK7‚ÄìPK0)
  244 000000FC 6001            STR              R1, [R0]    ; Escreve no regist
                                                            rador DEN
  245 000000FE         
  246 000000FE 4871            LDR              R0, =GPIO_PORTM_DEN_R ; Endere√
                                                            ßo do DEN para a po
                                                            rta M
  247 00000100 F04F 0107       MOV              R1, #2_00000111 ; Habilita PM2‚
                                                            ÄìPM0 como digitais
                                                            
  248 00000104 6001            STR              R1, [R0]    ; Escreve no regist
                                                            rador DEN
  249 00000106         
  250 00000106 4870            LDR              R0, =GPIO_PORTP_DEN_R ; Endere√
                                                            ßo do DEN para a po
                                                            rta P
  251 00000108 F04F 0120       MOV              R1, #2_00100000 ; Habilita PP5 
                                                            como digital
  252 0000010C 6001            STR              R1, [R0]    ; Escreve no regist
                                                            rador DEN
  253 0000010E         
  254 0000010E 486F            LDR              R0, =GPIO_PORTQ_DEN_R ; Endere√
                                                            ßo do DEN para a po
                                                            rta Q
  255 00000110 F04F 010F       MOV              R1, #2_00001111 ; Habilita PQ3:
                                                            PQ0 como digital
  256 00000114 6001            STR              R1, [R0]    ; Escreve no regist
                                                            rador DEN
  257 00000116         
  258 00000116         ; 7. Para habilitar resistor de pull-up interno, setar P
                       UR para 1
  259 00000116 486E            LDR              R0, =GPIO_PORTJ_AHB_PUR_R ; End
                                                            ere√ßo do PUR para 
                                                            a porta J
  260 00000118 F04F 0103       MOV              R1, #0x03   ; Bits 1:0 = 1 para
                                                             habilitar os resis
                                                            tores de pull-up
  261 0000011C 6001            STR              R1, [R0]    ; Escreve no regist
                                                            rador PUR
  262 0000011E         
  263 0000011E E8BD 4007       POP              {R0, R1, R2, LR} ; Restaura os 
                                                            registradores usado



ARM Macro Assembler    Page 11 


                                                            s da pilha
  264 00000122 4770            BX               LR          ; Retorna da fun√ß√
                                                            £o
  265 00000124         
  266 00000124         ; ------------------------------------------------------
                       -------------------------
  267 00000124         ; Fun√ß√£o PortA_Output
  268 00000124         ; Par√¢metro de entrada: R0 --> Valor a ser escrito nos 
                       pinos PA7:PA4
  269 00000124         ; Par√¢metro de sa√≠da: Nenhum
  270 00000124         PortA_Output
  271 00000124 B506            PUSH             {R1, R2, LR}
  272 00000126 496B            LDR              R1, =GPIO_PORTA_AHB_DATA_R ; Ca
                                                            rrega o endere√ßo d
                                                            o registrador de da
                                                            dos da porta A
  273 00000128 680A            LDR              R2, [R1]    ; L√™ o valor atual
                                                             do registrador de 
                                                            dados
  274 0000012A F022 02F0       BIC              R2, R2, #2_11110000 ; Limpa os 
                                                            bits PA7:PA4 (0b111
                                                            10000)
  275 0000012E EA42 0200       ORR              R2, R2, R0  ; Define os bits PA
                                                            7:PA4 com o valor d
                                                            e R0
  276 00000132 600A            STR              R2, [R1]    ; Escreve o valor a
                                                            tualizado no regist
                                                            rador de dados
  277 00000134 E8BD 4006       POP              {R1, R2, LR}
  278 00000138 4770            BX               LR          ; Retorna da fun√ß√
                                                            £o
  279 0000013A         
  280 0000013A         ; ------------------------------------------------------
                       -------------------------
  281 0000013A         ; Fun√ß√£o PortB_Output
  282 0000013A         ; Par√¢metro de entrada: R0 --> Valor a ser escrito nos 
                       pinos PB5:PB4
  283 0000013A         ; Par√¢metro de sa√≠da: Nenhum
  284 0000013A         PortB_Output
  285 0000013A B506            PUSH             {R1, R2, LR}
  286 0000013C 4966            LDR              R1, =GPIO_PORTB_AHB_DATA_R ; Ca
                                                            rrega o endere√ßo d
                                                            o registrador de da
                                                            dos da porta B
  287 0000013E 680A            LDR              R2, [R1]    ; L√™ o valor atual
                                                             do registrador de 
                                                            dados
  288 00000140 F022 0230       BIC              R2, R2, #2_00110000 ; Limpa os 
                                                            bits PB5:PB4 (0b001
                                                            10000)
  289 00000144 EA42 0200       ORR              R2, R2, R0  ; Define os bits PB
                                                            5:PB4 com o valor d
                                                            e R0
  290 00000148 600A            STR              R2, [R1]    ; Escreve o valor a
                                                            tualizado no regist
                                                            rador de dados
  291 0000014A E8BD 4006       POP              {R1, R2, LR}
  292 0000014E 4770            BX               LR          ; Retorna da fun√ß√
                                                            £o



ARM Macro Assembler    Page 12 


  293 00000150         
  294 00000150         ; ------------------------------------------------------
                       -------------------------
  295 00000150         ; Fun√ß√£o PortK_Output
  296 00000150         ; Par√¢metro de entrada: R0 --> Valor a ser escrito nos 
                       pinos PQ3:PQ0
  297 00000150         ; Par√¢metro de sa√≠da: Nenhum
  298 00000150         PortK_Output
  299 00000150 B506            PUSH             {R1, R2, LR}
  300 00000152 4962            LDR              R1, =GPIO_PORTK_DATA_R ; Carreg
                                                            a o endere√ßo do re
                                                            gistrador de dados 
                                                            da porta K
  301 00000154 680A            LDR              R2, [R1]    ; L√™ o valor atual
                                                             do registrador de 
                                                            dados
  302 00000156 F022 02FF       BIC              R2, R2, #2_11111111 ; Limpa os 
                                                            bits PK7:PK0 (0b111
                                                            11111)
  303 0000015A EA42 0200       ORR              R2, R2, R0  ; Define os bits PK
                                                            7:PK0 com o valor d
                                                            e R0
  304 0000015E 600A            STR              R2, [R1]    ; Escreve o valor a
                                                            tualizado no regist
                                                            rador de dados
  305 00000160 E8BD 4006       POP              {R1, R2, LR}
  306 00000164 4770            BX               LR          ; Retorna da fun√ß√
                                                            £o
  307 00000166         
  308 00000166         ; ------------------------------------------------------
                       -------------------------
  309 00000166         ; Fun√ß√£o PortM_Output
  310 00000166         ; Par√¢metro de entrada: R0 --> Valor a ser escrito nos 
                       pinos PQ3:PQ0
  311 00000166         ; Par√¢metro de sa√≠da: Nenhum
  312 00000166         PortM_Output
  313 00000166 B506            PUSH             {R1, R2, LR}
  314 00000168 495D            LDR              R1, =GPIO_PORTM_DATA_R ; Carreg
                                                            a o endere√ßo do re
                                                            gistrador de dados 
                                                            da porta M
  315 0000016A 680A            LDR              R2, [R1]    ; L√™ o valor atual
                                                             do registrador de 
                                                            dados
  316 0000016C F022 0207       BIC              R2, R2, #2_00000111 ; Limpa os 
                                                            bits PM2:PM0 (0b000
                                                            00111)
  317 00000170 EA42 0200       ORR              R2, R2, R0  ; Define os bits PM
                                                            2:PM0 com o valor d
                                                            e R0
  318 00000174 600A            STR              R2, [R1]    ; Escreve o valor a
                                                            tualizado no regist
                                                            rador de dados
  319 00000176 E8BD 4006       POP              {R1, R2, LR}
  320 0000017A 4770            BX               LR          ; Retorna da fun√ß√
                                                            £o
  321 0000017C         
  322 0000017C         ; ------------------------------------------------------
                       -------------------------



ARM Macro Assembler    Page 13 


  323 0000017C         ; Fun√ß√£o PortP_Output
  324 0000017C         ; Par√¢metro de entrada: R0 --> Valor a ser escrito no p
                       ino PP5
  325 0000017C         ; Par√¢metro de sa√≠da: Nenhum
  326 0000017C         PortP_Output
  327 0000017C B506            PUSH             {R1, R2, LR}
  328 0000017E 4959            LDR              R1, =GPIO_PORTP_DATA_R ; Carreg
                                                            a o endere√ßo do re
                                                            gistrador de dados 
                                                            da porta P
  329 00000180 680A            LDR              R2, [R1]    ; L√™ o valor atual
                                                             do registrador de 
                                                            dados
  330 00000182 F022 0220       BIC              R2, R2, #2_00100000 ; Limpa o b
                                                            it PP5 (0b00100000)
                                                            
  331 00000186 EA42 0200       ORR              R2, R2, R0  ; Define o bit PP5 
                                                            com o valor de R0
  332 0000018A 600A            STR              R2, [R1]    ; Escreve o valor a
                                                            tualizado no regist
                                                            rador de dados
  333 0000018C E8BD 4006       POP              {R1, R2, LR}
  334 00000190 4770            BX               LR          ; Retorna da fun√ß√
                                                            £o
  335 00000192         
  336 00000192         ; ------------------------------------------------------
                       -------------------------
  337 00000192         ; Fun√ß√£o PortQ_Output
  338 00000192         ; Par√¢metro de entrada: R0 --> Valor a ser escrito nos 
                       pinos PQ3:PQ0
  339 00000192         ; Par√¢metro de sa√≠da: Nenhum
  340 00000192         PortQ_Output
  341 00000192 B506            PUSH             {R1, R2, LR}
  342 00000194 4954            LDR              R1, =GPIO_PORTQ_DATA_R ; Carreg
                                                            a o endere√ßo do re
                                                            gistrador de dados 
                                                            da porta Q
  343 00000196 680A            LDR              R2, [R1]    ; L√™ o valor atual
                                                             do registrador de 
                                                            dados
  344 00000198 F022 020F       BIC              R2, R2, #2_00001111 ; Limpa os 
                                                            bits PQ3:PQ0 (0b000
                                                            01111)
  345 0000019C EA42 0200       ORR              R2, R2, R0  ; Define os bits PQ
                                                            3:PQ0 com o valor d
                                                            e R0
  346 000001A0 600A            STR              R2, [R1]    ; Escreve o valor a
                                                            tualizado no regist
                                                            rador de dados
  347 000001A2 E8BD 4006       POP              {R1, R2, LR}
  348 000001A6 4770            BX               LR          ; Retorna da fun√ß√
                                                            £o
  349 000001A8         
  350 000001A8         ; ------------------------------------------------------
                       -------------------------
  351 000001A8         ; Fun√ß√£o GPIOPortJ_Init
  352 000001A8         ; Inicializa a porta J para interrup√ß√µes
  353 000001A8         ; Par√¢metro de entrada: N√£o tem
  354 000001A8         ; Par√¢metro de sa√≠da: N√£o tem



ARM Macro Assembler    Page 14 


  355 000001A8         GPIOPortJ_Init
  356 000001A8 B503            PUSH             {R0, R1, LR}
  357 000001AA         ; PASSO 1 - Desabilitar interrup√ß√µes
  358 000001AA F04F 0100       MOV              R1, #0x00   ; Limpa os bits de 
                                                            interrup√ß√£o = 0
  359 000001AE 484F            LDR              R0, =GPIO_PORTJ_AHB_IM_R ; Ende
                                                            re√ßo do registrado
                                                            r IM para a porta J
                                                            
  360 000001B0 6001            STR              R1, [R0]    ; Escreve no regist
                                                            rador IM
  361 000001B2         
  362 000001B2         ; PASSO 2 - Configura o registrador de detec√ß√£o de bor
                       da (IS) para a porta J
  363 000001B2 F04F 0100       MOV              R1, #0x00   ; Configura o modo 
                                                            de detec√ß√£o de bo
                                                            rda = 0
  364 000001B6 484E            LDR              R0, =GPIO_PORTJ_AHB_IS_R ; Ende
                                                            re√ßo do registrado
                                                            r IS para a porta J
                                                            
  365 000001B8 6001            STR              R1, [R0]    ; Escreve no regist
                                                            rador IS
  366 000001BA         
  367 000001BA         ; PASSO 3.A - Configura o registrador de detec√ß√£o de b
                       orda √∫nica (IBE) para a porta J
  368 000001BA F04F 0100       MOV              R1, #0x00   ; Configura o modo 
                                                            de detec√ß√£o de bo
                                                            rda √∫nica = 0
  369 000001BE 484D            LDR              R0, =GPIO_PORTJ_AHB_IBE_R ; End
                                                            ere√ßo do registrad
                                                            or IBE para a porta
                                                             J
  370 000001C0 6001            STR              R1, [R0]    ; Escreve no regist
                                                            rador IBE
  371 000001C2         
  372 000001C2         ; PASSO 3.B - Configura√ß√£o borda IEV para a porta J al
                       ternativa
  373 000001C2 F04F 0100       MOV              R1, #0x00   ; Configura o modo 
                                                            de detec√ß√£o de bo
                                                            rda de descida = 0
  374 000001C6 484C            LDR              R0, =GPIO_PORTJ_AHB_IEV_R ; End
                                                            ere√ßo do registrad
                                                            or IEV para a porta
                                                             J
  375 000001C8 6001            STR              R1, [R0]    ; Escreve no regist
                                                            rador IEV
  376 000001CA         
  377 000001CA         ; PASSO 4 - Limpa as interrup√ß√µes pendentes no registr
                       ador ICR
  378 000001CA F04F 0103       MOV              R1, #0x03   ; Limpa as interrup
                                                            √ß√µes de PJ0 e PJ1
                                                             = 1
  379 000001CE 484B            LDR              R0, =GPIO_PORTJ_AHB_ICR_R ; End
                                                            ere√ßo do registrad
                                                            or ICR para a porta
                                                             J
  380 000001D0 6001            STR              R1, [R0]    ; Escreve no regist
                                                            rador ICR



ARM Macro Assembler    Page 15 


  381 000001D2         
  382 000001D2         ; PASSO 5 - Habilita as interrup√ß√µes no registrador IM
                       
  383 000001D2 F04F 0103       MOV              R1, #0x03   ; Habilita as inter
                                                            rup√ß√µes de PJ0 e 
                                                            PJ1 = 1
  384 000001D6 4845            LDR              R0, =GPIO_PORTJ_AHB_IM_R ; Ende
                                                            re√ßo do registrado
                                                            r IM para a porta J
                                                            
  385 000001D8 6001            STR              R1, [R0]    ; Escreve no regist
                                                            rador IM
  386 000001DA         
  387 000001DA         ; PASSO 6 - Configura o registrador NVIC para habilitar 
                       a interrup√ß√£o da porta J
  388 000001DA F04F 0101       MOV              R1, #1      ; Habilita a interr
                                                            up√ß√£o da porta J 
                                                            = 1
  389 000001DE EA4F 41C1       LSL              R1, #19     ; Desloca 19 bits p
                                                            ara a esquerda para
                                                             o bit correto
  390 000001E2 4847            LDR              R0, =NVIC_EN1_R ; Endere√ßo do 
                                                            registrador NVIC_EN
                                                            1
  391 000001E4 6001            STR              R1, [R0]    ; Escreve no regist
                                                            rador NVIC_EN1
  392 000001E6         
  393 000001E6         ; PASSO 7.B - Configura a prioridade da interrup√ß√£o no
                        registrador NVIC_PRI12
  394 000001E6 F04F 0105       MOV              R1, #5      ; Define a priorida
                                                            de da interrup√ß√£o
                                                             = 5
  395 000001EA EA4F 7141       LSL              R1, #29     ; Desloca 29 bits p
                                                            ara a esquerda para
                                                             o bit correto
  396 000001EE 4845            LDR              R0, =NVIC_PRI12_R ; Endere√ßo d
                                                            o registrador NVIC_
                                                            PRI12
  397 000001F0 6001            STR              R1, [R0]    ; Escreve no regist
                                                            rador NVIC_PRI12
  398 000001F2         
  399 000001F2 E8BD 4003       POP              {R0, R1, LR}
  400 000001F6 4770            BX               LR
  401 000001F8         
  402 000001F8         ; ------------------------------------------------------
                       -------------------------
  403 000001F8         ; Fun√ß√£o GPIOPortJ_Handler
  404 000001F8         ; Interrup√ß√£o da porta J (PJ0 e PJ1)
  405 000001F8         ; Par√¢metro de entrada: N√£o tem
  406 000001F8         ; Par√¢metro de sa√≠da: N√£o tem
  407 000001F8         GPIOPortJ_Handler
  408 000001F8 B503            PUSH             {R0,R1,LR}
  409 000001FA 4843            LDR              R0, =GPIO_PORTJ_AHB_RIS_R ; End
                                                            ere√ßo do RIS para 
                                                            a porta J
  410 000001FC 6801            LDR              R1, [R0]    ; L√™ o valor do re
                                                            gistrador de interr
                                                            up√ß√£o
  411 000001FE         



ARM Macro Assembler    Page 16 


  412 000001FE         VerificaJ0
  413 000001FE F011 0F01       TST              R1, #0x01   ; Verifica se PJ0 g
                                                            erou interrup√ß√£o 
                                                            (bit 0)
  414 00000202 D009            BEQ              VerificaJ1  ; Se n√£o, verifica
                                                             PJ1
  415 00000204         
  416 00000204         ; L√≥gica para PJ0
  417 00000204 483D            LDR              R0, =GPIO_PORTJ_AHB_ICR_R ; End
                                                            ere√ßo do ICR para 
                                                            a porta J
  418 00000206 F04F 0101       MOV              R1, #0x01   ; Limpa a interrup√
                                                            ß√£o de PJ0
  419 0000020A 6001            STR              R1, [R0]    ; Limpa a interrup√
                                                            ß√£o de PJ0
  420 0000020C F105 0501       ADD              R5, R5, #1  ; Incrementa o pass
                                                            o
  421 00000210 2D0A            CMP              R5, #10     ; Verifica se o pas
                                                            so √© maior que 10
  422 00000212 BFA8            IT               GE          ; Se for maior ou i
                                                            gual a 10, reinicia
                                                             o passo
  423 00000214 2501            MOVGE            R5, #1      ; Reinicia o passo 
                                                            para 1
  424 00000216 E00C            B                Fim_Ver     ; Sai da verifica√ß
                                                            √£o de interrup√ß√£
                                                            o
  425 00000218         
  426 00000218         VerificaJ1
  427 00000218 483B            LDR              R0, =GPIO_PORTJ_AHB_RIS_R ; End
                                                            ere√ßo do RIS para 
                                                            a porta J
  428 0000021A 6801            LDR              R1, [R0]    ; L√™ o valor do re
                                                            gistrador de interr
                                                            up√ß√£o
  429 0000021C F011 0F02       TST              R1, #0x02   ; Verifica se PJ1 g
                                                            erou interrup√ß√£o 
                                                            (bit 1)
  430 00000220 D007            BEQ              Fim_Ver     ; Se n√£o, sai da v
                                                            erifica√ß√£o
  431 00000222         
  432 00000222         ; L√≥gica para PJ1
  433 00000222 4836            LDR              R0, =GPIO_PORTJ_AHB_ICR_R ; End
                                                            ere√ßo do ICR para 
                                                            a porta J
  434 00000224 F04F 0102       MOV              R1, #0x02   ; Limpa a interrup√
                                                            ß√£o de PJ1
  435 00000228 6001            STR              R1, [R0]    ; Limpa a interrup√
                                                            ß√£o de PJ1
  436 0000022A 2E00            CMP              R6, #0      ; Verifica o modo a
                                                            tual (crescente ou 
                                                            decrescente)
  437 0000022C BF0C            ITE              EQ          ; Se for crescente,
                                                             muda para decresce
                                                            nte, e vice-versa
  438 0000022E 2601            MOVEQ            R6, #1      ; Alterna o modo
  439 00000230 2600            MOVNE            R6, #0      ; Alterna o modo
  440 00000232         
  441 00000232         Fim_Ver



ARM Macro Assembler    Page 17 


  442 00000232 6001            STR              R1, [R0]    ; Salva no registra
                                                            dor
  443 00000234 E8BD 4003       POP              {R0, R1, LR}
  444 00000238 4770            BX               LR
  445 0000023A         
  446 0000023A         ; ------------------------------------------------------
                       --------------------------------------------------------
                       -----------
  447 0000023A         ; Fim do Arquivo
  448 0000023A         ; ------------------------------------------------------
                       --------------------------------------------------------
                       -----------
  449 0000023A 00 00           ALIGN                        ; Garante que o fim
                                                             da se√ß√£o est√° a
                                                            linhado
  450 0000023C                 END                          ; Fim do arquivo
              400FE608 
              400FEA08 
              40058528 
              40059528 
              40060528 
              40061528 
              40063528 
              40065528 
              40066528 
              4005852C 
              4005952C 
              4006052C 
              4006152C 
              4006352C 
              4006552C 
              4006652C 
              40058400 
              40059400 
              40060400 
              40061400 
              40063400 
              40065400 
              40066400 
              40058420 
              40059420 
              40060420 
              40061420 
              40063420 
              40065420 
              40066420 
              4005851C 
              4005951C 
              4006051C 
              4006151C 
              4006351C 
              4006551C 
              4006651C 
              40060510 
              400583FC 
              400593FC 
              400613FC 
              400633FC 
              400653FC 



ARM Macro Assembler    Page 18 


              400663FC 
              40060410 
              40060404 
              40060408 
              4006040C 
              4006041C 
              E000E104 
              E000E430 
              40060414 
Command Line: --debug --xref --diag_suppress=9931,A1950W --cpu=Cortex-M4.fp.sp 
--depend=.\objects\gpio.d -o.\objects\gpio.o -IC:\Users\lucas\AppData\Local\arm
\packs\Keil\TM4C_DFP\1.1.0\Device\Include\TM4C129 --predefine="__EVAL SETA 1" -
-predefine="__UVISION_VERSION SETA 542" --predefine="TM4C129ENCPDT SETA 1" --li
st=.\listings\gpio.lst gpio.s



ARM Macro Assembler    Page 1 Alphabetic symbol ordering
Relocatable symbols

.text 00000000

Symbol: .text
   Definitions
      At line 96 in file gpio.s
   Uses
      None
Comment: .text unused
EsperaGPIO 00000024

Symbol: EsperaGPIO
   Definitions
      At line 129 in file gpio.s
   Uses
      At line 139 in file gpio.s
Comment: EsperaGPIO used once
Fim_Ver 00000232

Symbol: Fim_Ver
   Definitions
      At line 441 in file gpio.s
   Uses
      At line 424 in file gpio.s
      At line 430 in file gpio.s

GPIOPortJ_Handler 000001F8

Symbol: GPIOPortJ_Handler
   Definitions
      At line 407 in file gpio.s
   Uses
      At line 106 in file gpio.s
Comment: GPIOPortJ_Handler used once
GPIOPortJ_Init 000001A8

Symbol: GPIOPortJ_Init
   Definitions
      At line 355 in file gpio.s
   Uses
      At line 105 in file gpio.s
Comment: GPIOPortJ_Init used once
GPIO_Init 00000000

Symbol: GPIO_Init
   Definitions
      At line 112 in file gpio.s
   Uses
      At line 98 in file gpio.s
Comment: GPIO_Init used once
PortA_Output 00000124

Symbol: PortA_Output
   Definitions
      At line 270 in file gpio.s
   Uses
      At line 99 in file gpio.s
Comment: PortA_Output used once
PortB_Output 0000013A




ARM Macro Assembler    Page 2 Alphabetic symbol ordering
Relocatable symbols

Symbol: PortB_Output
   Definitions
      At line 284 in file gpio.s
   Uses
      At line 100 in file gpio.s
Comment: PortB_Output used once
PortK_Output 00000150

Symbol: PortK_Output
   Definitions
      At line 298 in file gpio.s
   Uses
      At line 101 in file gpio.s
Comment: PortK_Output used once
PortM_Output 00000166

Symbol: PortM_Output
   Definitions
      At line 312 in file gpio.s
   Uses
      At line 102 in file gpio.s
Comment: PortM_Output used once
PortP_Output 0000017C

Symbol: PortP_Output
   Definitions
      At line 326 in file gpio.s
   Uses
      At line 103 in file gpio.s
Comment: PortP_Output used once
PortQ_Output 00000192

Symbol: PortQ_Output
   Definitions
      At line 340 in file gpio.s
   Uses
      At line 104 in file gpio.s
Comment: PortQ_Output used once
VerificaJ0 000001FE

Symbol: VerificaJ0
   Definitions
      At line 412 in file gpio.s
   Uses
      None
Comment: VerificaJ0 unused
VerificaJ1 00000218

Symbol: VerificaJ1
   Definitions
      At line 426 in file gpio.s
   Uses
      At line 414 in file gpio.s
Comment: VerificaJ1 used once
14 symbols



ARM Macro Assembler    Page 1 Alphabetic symbol ordering
Absolute symbols

BIT0 00000001

Symbol: BIT0
   Definitions
      At line 11 in file gpio.s
   Uses
      None
Comment: BIT0 unused
BIT1 00000002

Symbol: BIT1
   Definitions
      At line 12 in file gpio.s
   Uses
      None
Comment: BIT1 unused
GPIO_PORTA 00000001

Symbol: GPIO_PORTA
   Definitions
      At line 27 in file gpio.s
   Uses
      At line 119 in file gpio.s
      At line 131 in file gpio.s

GPIO_PORTA_AHB_AFSEL_R 40058420

Symbol: GPIO_PORTA_AHB_AFSEL_R
   Definitions
      At line 24 in file gpio.s
   Uses
      At line 214 in file gpio.s
Comment: GPIO_PORTA_AHB_AFSEL_R used once
GPIO_PORTA_AHB_AMSEL_R 40058528

Symbol: GPIO_PORTA_AHB_AMSEL_R
   Definitions
      At line 21 in file gpio.s
   Uses
      At line 143 in file gpio.s
Comment: GPIO_PORTA_AHB_AMSEL_R used once
GPIO_PORTA_AHB_DATA_R 400583FC

Symbol: GPIO_PORTA_AHB_DATA_R
   Definitions
      At line 26 in file gpio.s
   Uses
      At line 272 in file gpio.s
Comment: GPIO_PORTA_AHB_DATA_R used once
GPIO_PORTA_AHB_DEN_R 4005851C

Symbol: GPIO_PORTA_AHB_DEN_R
   Definitions
      At line 25 in file gpio.s
   Uses
      At line 230 in file gpio.s
Comment: GPIO_PORTA_AHB_DEN_R used once
GPIO_PORTA_AHB_DIR_R 40058400




ARM Macro Assembler    Page 2 Alphabetic symbol ordering
Absolute symbols

Symbol: GPIO_PORTA_AHB_DIR_R
   Definitions
      At line 23 in file gpio.s
   Uses
      At line 177 in file gpio.s
Comment: GPIO_PORTA_AHB_DIR_R used once
GPIO_PORTA_AHB_PCTL_R 4005852C

Symbol: GPIO_PORTA_AHB_PCTL_R
   Definitions
      At line 22 in file gpio.s
   Uses
      At line 160 in file gpio.s
Comment: GPIO_PORTA_AHB_PCTL_R used once
GPIO_PORTB 00000002

Symbol: GPIO_PORTB
   Definitions
      At line 37 in file gpio.s
   Uses
      At line 120 in file gpio.s
      At line 132 in file gpio.s

GPIO_PORTB_AHB_AFSEL_R 40059420

Symbol: GPIO_PORTB_AHB_AFSEL_R
   Definitions
      At line 33 in file gpio.s
   Uses
      At line 216 in file gpio.s
Comment: GPIO_PORTB_AHB_AFSEL_R used once
GPIO_PORTB_AHB_AMSEL_R 40059528

Symbol: GPIO_PORTB_AHB_AMSEL_R
   Definitions
      At line 30 in file gpio.s
   Uses
      At line 145 in file gpio.s
Comment: GPIO_PORTB_AHB_AMSEL_R used once
GPIO_PORTB_AHB_DATA_R 400593FC

Symbol: GPIO_PORTB_AHB_DATA_R
   Definitions
      At line 36 in file gpio.s
   Uses
      At line 286 in file gpio.s
Comment: GPIO_PORTB_AHB_DATA_R used once
GPIO_PORTB_AHB_DEN_R 4005951C

Symbol: GPIO_PORTB_AHB_DEN_R
   Definitions
      At line 34 in file gpio.s
   Uses
      At line 234 in file gpio.s
Comment: GPIO_PORTB_AHB_DEN_R used once
GPIO_PORTB_AHB_DIR_R 40059400

Symbol: GPIO_PORTB_AHB_DIR_R
   Definitions



ARM Macro Assembler    Page 3 Alphabetic symbol ordering
Absolute symbols

      At line 32 in file gpio.s
   Uses
      At line 182 in file gpio.s
Comment: GPIO_PORTB_AHB_DIR_R used once
GPIO_PORTB_AHB_PCTL_R 4005952C

Symbol: GPIO_PORTB_AHB_PCTL_R
   Definitions
      At line 31 in file gpio.s
   Uses
      At line 162 in file gpio.s
Comment: GPIO_PORTB_AHB_PCTL_R used once
GPIO_PORTB_AHB_PUR_R 40059510

Symbol: GPIO_PORTB_AHB_PUR_R
   Definitions
      At line 35 in file gpio.s
   Uses
      None
Comment: GPIO_PORTB_AHB_PUR_R unused
GPIO_PORTJ 00000100

Symbol: GPIO_PORTJ
   Definitions
      At line 52 in file gpio.s
   Uses
      At line 121 in file gpio.s
      At line 133 in file gpio.s

GPIO_PORTJ_AHB_AFSEL_R 40060420

Symbol: GPIO_PORTJ_AHB_AFSEL_R
   Definitions
      At line 43 in file gpio.s
   Uses
      At line 218 in file gpio.s
Comment: GPIO_PORTJ_AHB_AFSEL_R used once
GPIO_PORTJ_AHB_AMSEL_R 40060528

Symbol: GPIO_PORTJ_AHB_AMSEL_R
   Definitions
      At line 40 in file gpio.s
   Uses
      At line 147 in file gpio.s
Comment: GPIO_PORTJ_AHB_AMSEL_R used once
GPIO_PORTJ_AHB_DEN_R 4006051C

Symbol: GPIO_PORTJ_AHB_DEN_R
   Definitions
      At line 44 in file gpio.s
   Uses
      At line 238 in file gpio.s
Comment: GPIO_PORTJ_AHB_DEN_R used once
GPIO_PORTJ_AHB_DIR_R 40060400

Symbol: GPIO_PORTJ_AHB_DIR_R
   Definitions
      At line 42 in file gpio.s
   Uses



ARM Macro Assembler    Page 4 Alphabetic symbol ordering
Absolute symbols

      At line 187 in file gpio.s
Comment: GPIO_PORTJ_AHB_DIR_R used once
GPIO_PORTJ_AHB_IBE_R 40060408

Symbol: GPIO_PORTJ_AHB_IBE_R
   Definitions
      At line 49 in file gpio.s
   Uses
      At line 369 in file gpio.s
Comment: GPIO_PORTJ_AHB_IBE_R used once
GPIO_PORTJ_AHB_ICR_R 4006041C

Symbol: GPIO_PORTJ_AHB_ICR_R
   Definitions
      At line 47 in file gpio.s
   Uses
      At line 379 in file gpio.s
      At line 417 in file gpio.s
      At line 433 in file gpio.s

GPIO_PORTJ_AHB_IEV_R 4006040C

Symbol: GPIO_PORTJ_AHB_IEV_R
   Definitions
      At line 50 in file gpio.s
   Uses
      At line 374 in file gpio.s
Comment: GPIO_PORTJ_AHB_IEV_R used once
GPIO_PORTJ_AHB_IM_R 40060410

Symbol: GPIO_PORTJ_AHB_IM_R
   Definitions
      At line 51 in file gpio.s
   Uses
      At line 359 in file gpio.s
      At line 384 in file gpio.s

GPIO_PORTJ_AHB_IS_R 40060404

Symbol: GPIO_PORTJ_AHB_IS_R
   Definitions
      At line 48 in file gpio.s
   Uses
      At line 364 in file gpio.s
Comment: GPIO_PORTJ_AHB_IS_R used once
GPIO_PORTJ_AHB_PCTL_R 4006052C

Symbol: GPIO_PORTJ_AHB_PCTL_R
   Definitions
      At line 41 in file gpio.s
   Uses
      At line 164 in file gpio.s
Comment: GPIO_PORTJ_AHB_PCTL_R used once
GPIO_PORTJ_AHB_PUR_R 40060510

Symbol: GPIO_PORTJ_AHB_PUR_R
   Definitions
      At line 45 in file gpio.s
   Uses



ARM Macro Assembler    Page 5 Alphabetic symbol ordering
Absolute symbols

      At line 259 in file gpio.s
Comment: GPIO_PORTJ_AHB_PUR_R used once
GPIO_PORTJ_AHB_RIS_R 40060414

Symbol: GPIO_PORTJ_AHB_RIS_R
   Definitions
      At line 46 in file gpio.s
   Uses
      At line 409 in file gpio.s
      At line 427 in file gpio.s

GPIO_PORTK 00000200

Symbol: GPIO_PORTK
   Definitions
      At line 61 in file gpio.s
   Uses
      At line 122 in file gpio.s
      At line 134 in file gpio.s

GPIO_PORTK_AFSEL_R 40061420

Symbol: GPIO_PORTK_AFSEL_R
   Definitions
      At line 58 in file gpio.s
   Uses
      At line 220 in file gpio.s
Comment: GPIO_PORTK_AFSEL_R used once
GPIO_PORTK_AMSEL_R 40061528

Symbol: GPIO_PORTK_AMSEL_R
   Definitions
      At line 55 in file gpio.s
   Uses
      At line 149 in file gpio.s
Comment: GPIO_PORTK_AMSEL_R used once
GPIO_PORTK_DATA_R 400613FC

Symbol: GPIO_PORTK_DATA_R
   Definitions
      At line 60 in file gpio.s
   Uses
      At line 300 in file gpio.s
Comment: GPIO_PORTK_DATA_R used once
GPIO_PORTK_DEN_R 4006151C

Symbol: GPIO_PORTK_DEN_R
   Definitions
      At line 59 in file gpio.s
   Uses
      At line 242 in file gpio.s
Comment: GPIO_PORTK_DEN_R used once
GPIO_PORTK_DIR_R 40061400

Symbol: GPIO_PORTK_DIR_R
   Definitions
      At line 57 in file gpio.s
   Uses
      At line 192 in file gpio.s



ARM Macro Assembler    Page 6 Alphabetic symbol ordering
Absolute symbols

Comment: GPIO_PORTK_DIR_R used once
GPIO_PORTK_PCTL_R 4006152C

Symbol: GPIO_PORTK_PCTL_R
   Definitions
      At line 56 in file gpio.s
   Uses
      At line 166 in file gpio.s
Comment: GPIO_PORTK_PCTL_R used once
GPIO_PORTM 00000800

Symbol: GPIO_PORTM
   Definitions
      At line 70 in file gpio.s
   Uses
      At line 123 in file gpio.s
      At line 135 in file gpio.s

GPIO_PORTM_AFSEL_R 40063420

Symbol: GPIO_PORTM_AFSEL_R
   Definitions
      At line 67 in file gpio.s
   Uses
      At line 222 in file gpio.s
Comment: GPIO_PORTM_AFSEL_R used once
GPIO_PORTM_AMSEL_R 40063528

Symbol: GPIO_PORTM_AMSEL_R
   Definitions
      At line 64 in file gpio.s
   Uses
      At line 151 in file gpio.s
Comment: GPIO_PORTM_AMSEL_R used once
GPIO_PORTM_DATA_R 400633FC

Symbol: GPIO_PORTM_DATA_R
   Definitions
      At line 69 in file gpio.s
   Uses
      At line 314 in file gpio.s
Comment: GPIO_PORTM_DATA_R used once
GPIO_PORTM_DEN_R 4006351C

Symbol: GPIO_PORTM_DEN_R
   Definitions
      At line 68 in file gpio.s
   Uses
      At line 246 in file gpio.s
Comment: GPIO_PORTM_DEN_R used once
GPIO_PORTM_DIR_R 40063400

Symbol: GPIO_PORTM_DIR_R
   Definitions
      At line 66 in file gpio.s
   Uses
      At line 197 in file gpio.s
Comment: GPIO_PORTM_DIR_R used once
GPIO_PORTM_PCTL_R 4006352C



ARM Macro Assembler    Page 7 Alphabetic symbol ordering
Absolute symbols


Symbol: GPIO_PORTM_PCTL_R
   Definitions
      At line 65 in file gpio.s
   Uses
      At line 168 in file gpio.s
Comment: GPIO_PORTM_PCTL_R used once
GPIO_PORTP 00002000

Symbol: GPIO_PORTP
   Definitions
      At line 79 in file gpio.s
   Uses
      At line 124 in file gpio.s
      At line 136 in file gpio.s

GPIO_PORTP_AFSEL_R 40065420

Symbol: GPIO_PORTP_AFSEL_R
   Definitions
      At line 76 in file gpio.s
   Uses
      At line 224 in file gpio.s
Comment: GPIO_PORTP_AFSEL_R used once
GPIO_PORTP_AMSEL_R 40065528

Symbol: GPIO_PORTP_AMSEL_R
   Definitions
      At line 73 in file gpio.s
   Uses
      At line 153 in file gpio.s
Comment: GPIO_PORTP_AMSEL_R used once
GPIO_PORTP_DATA_R 400653FC

Symbol: GPIO_PORTP_DATA_R
   Definitions
      At line 78 in file gpio.s
   Uses
      At line 328 in file gpio.s
Comment: GPIO_PORTP_DATA_R used once
GPIO_PORTP_DEN_R 4006551C

Symbol: GPIO_PORTP_DEN_R
   Definitions
      At line 77 in file gpio.s
   Uses
      At line 250 in file gpio.s
Comment: GPIO_PORTP_DEN_R used once
GPIO_PORTP_DIR_R 40065400

Symbol: GPIO_PORTP_DIR_R
   Definitions
      At line 75 in file gpio.s
   Uses
      At line 202 in file gpio.s
Comment: GPIO_PORTP_DIR_R used once
GPIO_PORTP_PCTL_R 4006552C

Symbol: GPIO_PORTP_PCTL_R



ARM Macro Assembler    Page 8 Alphabetic symbol ordering
Absolute symbols

   Definitions
      At line 74 in file gpio.s
   Uses
      At line 170 in file gpio.s
Comment: GPIO_PORTP_PCTL_R used once
GPIO_PORTQ 00004000

Symbol: GPIO_PORTQ
   Definitions
      At line 88 in file gpio.s
   Uses
      At line 125 in file gpio.s
      At line 137 in file gpio.s

GPIO_PORTQ_AFSEL_R 40066420

Symbol: GPIO_PORTQ_AFSEL_R
   Definitions
      At line 85 in file gpio.s
   Uses
      At line 226 in file gpio.s
Comment: GPIO_PORTQ_AFSEL_R used once
GPIO_PORTQ_AMSEL_R 40066528

Symbol: GPIO_PORTQ_AMSEL_R
   Definitions
      At line 82 in file gpio.s
   Uses
      At line 155 in file gpio.s
Comment: GPIO_PORTQ_AMSEL_R used once
GPIO_PORTQ_DATA_R 400663FC

Symbol: GPIO_PORTQ_DATA_R
   Definitions
      At line 87 in file gpio.s
   Uses
      At line 342 in file gpio.s
Comment: GPIO_PORTQ_DATA_R used once
GPIO_PORTQ_DEN_R 4006651C

Symbol: GPIO_PORTQ_DEN_R
   Definitions
      At line 86 in file gpio.s
   Uses
      At line 254 in file gpio.s
Comment: GPIO_PORTQ_DEN_R used once
GPIO_PORTQ_DIR_R 40066400

Symbol: GPIO_PORTQ_DIR_R
   Definitions
      At line 84 in file gpio.s
   Uses
      At line 207 in file gpio.s
Comment: GPIO_PORTQ_DIR_R used once
GPIO_PORTQ_PCTL_R 4006652C

Symbol: GPIO_PORTQ_PCTL_R
   Definitions
      At line 83 in file gpio.s



ARM Macro Assembler    Page 9 Alphabetic symbol ordering
Absolute symbols

   Uses
      At line 172 in file gpio.s
Comment: GPIO_PORTQ_PCTL_R used once
NVIC_EN1_R E000E104

Symbol: NVIC_EN1_R
   Definitions
      At line 91 in file gpio.s
   Uses
      At line 390 in file gpio.s
Comment: NVIC_EN1_R used once
NVIC_PRI12_R E000E430

Symbol: NVIC_PRI12_R
   Definitions
      At line 92 in file gpio.s
   Uses
      At line 396 in file gpio.s
Comment: NVIC_PRI12_R used once
SYSCTL_PRGPIO_R 400FEA08

Symbol: SYSCTL_PRGPIO_R
   Definitions
      At line 16 in file gpio.s
   Uses
      At line 128 in file gpio.s
Comment: SYSCTL_PRGPIO_R used once
SYSCTL_RCGCGPIO_R 400FE608

Symbol: SYSCTL_RCGCGPIO_R
   Definitions
      At line 15 in file gpio.s
   Uses
      At line 118 in file gpio.s
Comment: SYSCTL_RCGCGPIO_R used once
62 symbols
412 symbols in table
